
/home/porterlu/ysyx-workbench/am-kernels/tests/klib-test/build/copy-riscv64-npc.elf:     file format elf64-littleriscv


Disassembly of section .text:

0000000080000000 <_start>:
    80000000:	00000413          	li	s0,0
    80000004:	00009117          	auipc	sp,0x9
    80000008:	ffc10113          	addi	sp,sp,-4 # 80009000 <_end>
    8000000c:	178000ef          	jal	ra,80000184 <_trm_init>

0000000080000010 <check>:
    80000010:	00050463          	beqz	a0,80000018 <check+0x8>
    80000014:	00008067          	ret
    80000018:	ff010113          	addi	sp,sp,-16
    8000001c:	00100513          	li	a0,1
    80000020:	00113423          	sd	ra,8(sp)
    80000024:	158000ef          	jal	ra,8000017c <halt>

0000000080000028 <cpy_test>:
    80000028:	f9010113          	addi	sp,sp,-112
    8000002c:	06813023          	sd	s0,96(sp)
    80000030:	03613823          	sd	s6,48(sp)
    80000034:	00100413          	li	s0,1
    80000038:	00000b17          	auipc	s6,0x0
    8000003c:	190b0b13          	addi	s6,s6,400 # 800001c8 <array>
    80000040:	04913c23          	sd	s1,88(sp)
    80000044:	05313423          	sd	s3,72(sp)
    80000048:	03513c23          	sd	s5,56(sp)
    8000004c:	03713423          	sd	s7,40(sp)
    80000050:	03813023          	sd	s8,32(sp)
    80000054:	06113423          	sd	ra,104(sp)
    80000058:	05213823          	sd	s2,80(sp)
    8000005c:	05413023          	sd	s4,64(sp)
    80000060:	01913c23          	sd	s9,24(sp)
    80000064:	01a13823          	sd	s10,16(sp)
    80000068:	01b13423          	sd	s11,8(sp)
    8000006c:	000b0a93          	mv	s5,s6
    80000070:	00000993          	li	s3,0
    80000074:	00000497          	auipc	s1,0x0
    80000078:	17448493          	addi	s1,s1,372 # 800001e8 <array+0x20>
    8000007c:	4164043b          	subw	s0,s0,s6
    80000080:	04100b93          	li	s7,65
    80000084:	02000c13          	li	s8,32
    80000088:	0219891b          	addiw	s2,s3,33
    8000008c:	000a8a13          	mv	s4,s5
    80000090:	000b0793          	mv	a5,s6
    80000094:	00f4073b          	addw	a4,s0,a5
    80000098:	01f77713          	andi	a4,a4,31
    8000009c:	00e78023          	sb	a4,0(a5)
    800000a0:	00178793          	addi	a5,a5,1
    800000a4:	fef498e3          	bne	s1,a5,80000094 <cpy_test+0x6c>
    800000a8:	000a0593          	mv	a1,s4
    800000ac:	000a8513          	mv	a0,s5
    800000b0:	0f0000ef          	jal	ra,800001a0 <strcpy>
    800000b4:	02098463          	beqz	s3,800000dc <cpy_test+0xb4>
    800000b8:	000b0d13          	mv	s10,s6
    800000bc:	00000c93          	li	s9,0
    800000c0:	000d4503          	lbu	a0,0(s10)
    800000c4:	001c8c9b          	addiw	s9,s9,1
    800000c8:	001d0d13          	addi	s10,s10,1
    800000cc:	41950533          	sub	a0,a0,s9
    800000d0:	00153513          	seqz	a0,a0
    800000d4:	f3dff0ef          	jal	ra,80000010 <check>
    800000d8:	ff3c94e3          	bne	s9,s3,800000c0 <cpy_test+0x98>
    800000dc:	fe090c9b          	addiw	s9,s2,-32
    800000e0:	000a8d93          	mv	s11,s5
    800000e4:	00c0006f          	j	800000f0 <cpy_test+0xc8>
    800000e8:	001d8d93          	addi	s11,s11,1
    800000ec:	032c8063          	beq	s9,s2,8000010c <cpy_test+0xe4>
    800000f0:	000dcd03          	lbu	s10,0(s11)
    800000f4:	01fcf513          	andi	a0,s9,31
    800000f8:	001c8c9b          	addiw	s9,s9,1
    800000fc:	41a50533          	sub	a0,a0,s10
    80000100:	00153513          	seqz	a0,a0
    80000104:	f0dff0ef          	jal	ra,80000010 <check>
    80000108:	fe0d10e3          	bnez	s10,800000e8 <cpy_test+0xc0>
    8000010c:	0019091b          	addiw	s2,s2,1
    80000110:	001a0a13          	addi	s4,s4,1
    80000114:	f7791ee3          	bne	s2,s7,80000090 <cpy_test+0x68>
    80000118:	0019899b          	addiw	s3,s3,1
    8000011c:	001a8a93          	addi	s5,s5,1
    80000120:	f78994e3          	bne	s3,s8,80000088 <cpy_test+0x60>
    80000124:	06813083          	ld	ra,104(sp)
    80000128:	06013403          	ld	s0,96(sp)
    8000012c:	05813483          	ld	s1,88(sp)
    80000130:	05013903          	ld	s2,80(sp)
    80000134:	04813983          	ld	s3,72(sp)
    80000138:	04013a03          	ld	s4,64(sp)
    8000013c:	03813a83          	ld	s5,56(sp)
    80000140:	03013b03          	ld	s6,48(sp)
    80000144:	02813b83          	ld	s7,40(sp)
    80000148:	02013c03          	ld	s8,32(sp)
    8000014c:	01813c83          	ld	s9,24(sp)
    80000150:	01013d03          	ld	s10,16(sp)
    80000154:	00813d83          	ld	s11,8(sp)
    80000158:	07010113          	addi	sp,sp,112
    8000015c:	00008067          	ret

0000000080000160 <main>:
    80000160:	ff010113          	addi	sp,sp,-16
    80000164:	00113423          	sd	ra,8(sp)
    80000168:	ec1ff0ef          	jal	ra,80000028 <cpy_test>
    8000016c:	00813083          	ld	ra,8(sp)
    80000170:	00000513          	li	a0,0
    80000174:	01010113          	addi	sp,sp,16
    80000178:	00008067          	ret

000000008000017c <halt>:
    8000017c:	00100073          	ebreak
    80000180:	0000006f          	j	80000180 <halt+0x4>

0000000080000184 <_trm_init>:
    80000184:	ff010113          	addi	sp,sp,-16
    80000188:	00000517          	auipc	a0,0x0
    8000018c:	03850513          	addi	a0,a0,56 # 800001c0 <_etext>
    80000190:	00113423          	sd	ra,8(sp)
    80000194:	fcdff0ef          	jal	ra,80000160 <main>
    80000198:	00100073          	ebreak
    8000019c:	0000006f          	j	8000019c <_trm_init+0x18>

00000000800001a0 <strcpy>:
    800001a0:	00050793          	mv	a5,a0
    800001a4:	0005c683          	lbu	a3,0(a1)
    800001a8:	00178793          	addi	a5,a5,1
    800001ac:	00158593          	addi	a1,a1,1
    800001b0:	fed78fa3          	sb	a3,-1(a5)
    800001b4:	fff5c703          	lbu	a4,-1(a1)
    800001b8:	fe0716e3          	bnez	a4,800001a4 <strcpy+0x4>
    800001bc:	00008067          	ret
