
/home/porterlu/ysyx-workbench/am-kernels/tests/klib-test/build/sprintf-riscv64-npc.elf:     file format elf64-littleriscv


Disassembly of section .text:

0000000080000000 <_start>:
    80000000:	00000413          	li	s0,0
    80000004:	00009117          	auipc	sp,0x9
    80000008:	ffc10113          	addi	sp,sp,-4 # 80009000 <_end>
    8000000c:	0ac000ef          	jal	ra,800000b8 <_trm_init>

0000000080000010 <check>:
    80000010:	00050463          	beqz	a0,80000018 <check+0x8>
    80000014:	00008067          	ret
    80000018:	ff010113          	addi	sp,sp,-16
    8000001c:	00100513          	li	a0,1
    80000020:	00113423          	sd	ra,8(sp)
    80000024:	08c000ef          	jal	ra,800000b0 <halt>

0000000080000028 <main>:
    80000028:	f5010113          	addi	sp,sp,-176
    8000002c:	0a813023          	sd	s0,160(sp)
    80000030:	08913c23          	sd	s1,152(sp)
    80000034:	09213823          	sd	s2,144(sp)
    80000038:	09313423          	sd	s3,136(sp)
    8000003c:	0a113423          	sd	ra,168(sp)
    80000040:	00000417          	auipc	s0,0x0
    80000044:	49040413          	addi	s0,s0,1168 # 800004d0 <data>
    80000048:	00000497          	auipc	s1,0x0
    8000004c:	44848493          	addi	s1,s1,1096 # 80000490 <ans>
    80000050:	00000997          	auipc	s3,0x0
    80000054:	4a098993          	addi	s3,s3,1184 # 800004f0 <_bss_start>
    80000058:	00000917          	auipc	s2,0x0
    8000005c:	3c890913          	addi	s2,s2,968 # 80000420 <_etext>
    80000060:	00042603          	lw	a2,0(s0)
    80000064:	00090593          	mv	a1,s2
    80000068:	00010513          	mv	a0,sp
    8000006c:	1cc000ef          	jal	ra,80000238 <sprintf>
    80000070:	0004b583          	ld	a1,0(s1)
    80000074:	00010513          	mv	a0,sp
    80000078:	00440413          	addi	s0,s0,4
    8000007c:	080000ef          	jal	ra,800000fc <strcmp>
    80000080:	00153513          	seqz	a0,a0
    80000084:	f8dff0ef          	jal	ra,80000010 <check>
    80000088:	00848493          	addi	s1,s1,8
    8000008c:	fd341ae3          	bne	s0,s3,80000060 <main+0x38>
    80000090:	0a813083          	ld	ra,168(sp)
    80000094:	0a013403          	ld	s0,160(sp)
    80000098:	09813483          	ld	s1,152(sp)
    8000009c:	09013903          	ld	s2,144(sp)
    800000a0:	08813983          	ld	s3,136(sp)
    800000a4:	00000513          	li	a0,0
    800000a8:	0b010113          	addi	sp,sp,176
    800000ac:	00008067          	ret

00000000800000b0 <halt>:
    800000b0:	00100073          	ebreak
    800000b4:	0000006f          	j	800000b4 <halt+0x4>

00000000800000b8 <_trm_init>:
    800000b8:	ff010113          	addi	sp,sp,-16
    800000bc:	00000517          	auipc	a0,0x0
    800000c0:	3cc50513          	addi	a0,a0,972 # 80000488 <mainargs>
    800000c4:	00113423          	sd	ra,8(sp)
    800000c8:	f61ff0ef          	jal	ra,80000028 <main>
    800000cc:	00100073          	ebreak
    800000d0:	0000006f          	j	800000d0 <_trm_init+0x18>

00000000800000d4 <strlen>:
    800000d4:	00054783          	lbu	a5,0(a0)
    800000d8:	00050713          	mv	a4,a0
    800000dc:	00000513          	li	a0,0
    800000e0:	00078c63          	beqz	a5,800000f8 <strlen+0x24>
    800000e4:	00150513          	addi	a0,a0,1
    800000e8:	00a707b3          	add	a5,a4,a0
    800000ec:	0007c783          	lbu	a5,0(a5)
    800000f0:	fe079ae3          	bnez	a5,800000e4 <strlen+0x10>
    800000f4:	00008067          	ret
    800000f8:	00008067          	ret

00000000800000fc <strcmp>:
    800000fc:	00054683          	lbu	a3,0(a0)
    80000100:	0005c703          	lbu	a4,0(a1)
    80000104:	00150793          	addi	a5,a0,1
    80000108:	00158593          	addi	a1,a1,1
    8000010c:	02068063          	beqz	a3,8000012c <strcmp+0x30>
    80000110:	02070463          	beqz	a4,80000138 <strcmp+0x3c>
    80000114:	02e69863          	bne	a3,a4,80000144 <strcmp+0x48>
    80000118:	0007c683          	lbu	a3,0(a5)
    8000011c:	0005c703          	lbu	a4,0(a1)
    80000120:	00178793          	addi	a5,a5,1
    80000124:	00158593          	addi	a1,a1,1
    80000128:	fe0694e3          	bnez	a3,80000110 <strcmp+0x14>
    8000012c:	00000513          	li	a0,0
    80000130:	40e5053b          	subw	a0,a0,a4
    80000134:	00008067          	ret
    80000138:	0006851b          	sext.w	a0,a3
    8000013c:	40e5053b          	subw	a0,a0,a4
    80000140:	00008067          	ret
    80000144:	40e6853b          	subw	a0,a3,a4
    80000148:	00008067          	ret

000000008000014c <int2str>:
    8000014c:	00050613          	mv	a2,a0
    80000150:	00051e63          	bnez	a0,8000016c <int2str+0x20>
    80000154:	03000793          	li	a5,48
    80000158:	00158893          	addi	a7,a1,1
    8000015c:	00f58023          	sb	a5,0(a1)
    80000160:	00100513          	li	a0,1
    80000164:	00088023          	sb	zero,0(a7)
    80000168:	00008067          	ret
    8000016c:	0a055e63          	bgez	a0,80000228 <int2str+0xdc>
    80000170:	02d00793          	li	a5,45
    80000174:	00f58023          	sb	a5,0(a1)
    80000178:	00100f13          	li	t5,1
    8000017c:	00000693          	li	a3,0
    80000180:	00100e93          	li	t4,1
    80000184:	01e58733          	add	a4,a1,t5
    80000188:	00070813          	mv	a6,a4
    8000018c:	000f0513          	mv	a0,t5
    80000190:	00a00893          	li	a7,10
    80000194:	03000e13          	li	t3,48
    80000198:	031667bb          	remw	a5,a2,a7
    8000019c:	0ff7f793          	andi	a5,a5,255
    800001a0:	40fe033b          	subw	t1,t3,a5
    800001a4:	0307879b          	addiw	a5,a5,48
    800001a8:	0ff7f793          	andi	a5,a5,255
    800001ac:	000e8463          	beqz	t4,800001b4 <int2str+0x68>
    800001b0:	0ff37793          	andi	a5,t1,255
    800001b4:	0316463b          	divw	a2,a2,a7
    800001b8:	00f80023          	sb	a5,0(a6)
    800001bc:	0015051b          	addiw	a0,a0,1
    800001c0:	00180813          	addi	a6,a6,1
    800001c4:	fc061ae3          	bnez	a2,80000198 <int2str+0x4c>
    800001c8:	00af07bb          	addw	a5,t5,a0
    800001cc:	4017d61b          	sraiw	a2,a5,0x1
    800001d0:	00a588b3          	add	a7,a1,a0
    800001d4:	f8cf58e3          	bge	t5,a2,80000164 <int2str+0x18>
    800001d8:	fff6081b          	addiw	a6,a2,-1
    800001dc:	01e687b3          	add	a5,a3,t5
    800001e0:	41e806bb          	subw	a3,a6,t5
    800001e4:	00158613          	addi	a2,a1,1
    800001e8:	02069693          	slli	a3,a3,0x20
    800001ec:	40f507b3          	sub	a5,a0,a5
    800001f0:	01e60633          	add	a2,a2,t5
    800001f4:	0206d693          	srli	a3,a3,0x20
    800001f8:	00f585b3          	add	a1,a1,a5
    800001fc:	00d60633          	add	a2,a2,a3
    80000200:	00070793          	mv	a5,a4
    80000204:	0007c683          	lbu	a3,0(a5)
    80000208:	0005c703          	lbu	a4,0(a1)
    8000020c:	00178793          	addi	a5,a5,1
    80000210:	00d58023          	sb	a3,0(a1)
    80000214:	fee78fa3          	sb	a4,-1(a5)
    80000218:	fff58593          	addi	a1,a1,-1
    8000021c:	fec794e3          	bne	a5,a2,80000204 <int2str+0xb8>
    80000220:	00088023          	sb	zero,0(a7)
    80000224:	00008067          	ret
    80000228:	00000f13          	li	t5,0
    8000022c:	00100693          	li	a3,1
    80000230:	00000e93          	li	t4,0
    80000234:	f51ff06f          	j	80000184 <int2str+0x38>

0000000080000238 <sprintf>:
    80000238:	d7010113          	addi	sp,sp,-656
    8000023c:	23413823          	sd	s4,560(sp)
    80000240:	26f13c23          	sd	a5,632(sp)
    80000244:	00050a13          	mv	s4,a0
    80000248:	26010793          	addi	a5,sp,608
    8000024c:	00058513          	mv	a0,a1
    80000250:	23513423          	sd	s5,552(sp)
    80000254:	24113c23          	sd	ra,600(sp)
    80000258:	24813823          	sd	s0,592(sp)
    8000025c:	24913423          	sd	s1,584(sp)
    80000260:	25213023          	sd	s2,576(sp)
    80000264:	23313c23          	sd	s3,568(sp)
    80000268:	23613023          	sd	s6,544(sp)
    8000026c:	21713c23          	sd	s7,536(sp)
    80000270:	21813823          	sd	s8,528(sp)
    80000274:	21913423          	sd	s9,520(sp)
    80000278:	00058a93          	mv	s5,a1
    8000027c:	26c13023          	sd	a2,608(sp)
    80000280:	26d13423          	sd	a3,616(sp)
    80000284:	26e13823          	sd	a4,624(sp)
    80000288:	29013023          	sd	a6,640(sp)
    8000028c:	29113423          	sd	a7,648(sp)
    80000290:	00f13023          	sd	a5,0(sp)
    80000294:	e41ff0ef          	jal	ra,800000d4 <strlen>
    80000298:	18050063          	beqz	a0,80000418 <sprintf+0x1e0>
    8000029c:	00050b13          	mv	s6,a0
    800002a0:	00000493          	li	s1,0
    800002a4:	00000913          	li	s2,0
    800002a8:	00000793          	li	a5,0
    800002ac:	02500c93          	li	s9,37
    800002b0:	06400b93          	li	s7,100
    800002b4:	07300c13          	li	s8,115
    800002b8:	00fa8433          	add	s0,s5,a5
    800002bc:	00044783          	lbu	a5,0(s0)
    800002c0:	0019099b          	addiw	s3,s2,1
    800002c4:	05978e63          	beq	a5,s9,80000320 <sprintf+0xe8>
    800002c8:	009a0733          	add	a4,s4,s1
    800002cc:	00f70023          	sb	a5,0(a4)
    800002d0:	00098913          	mv	s2,s3
    800002d4:	0014849b          	addiw	s1,s1,1
    800002d8:	00098793          	mv	a5,s3
    800002dc:	fd67eee3          	bltu	a5,s6,800002b8 <sprintf+0x80>
    800002e0:	009a0a33          	add	s4,s4,s1
    800002e4:	000a0023          	sb	zero,0(s4)
    800002e8:	25813083          	ld	ra,600(sp)
    800002ec:	25013403          	ld	s0,592(sp)
    800002f0:	24013903          	ld	s2,576(sp)
    800002f4:	23813983          	ld	s3,568(sp)
    800002f8:	23013a03          	ld	s4,560(sp)
    800002fc:	22813a83          	ld	s5,552(sp)
    80000300:	22013b03          	ld	s6,544(sp)
    80000304:	21813b83          	ld	s7,536(sp)
    80000308:	21013c03          	ld	s8,528(sp)
    8000030c:	20813c83          	ld	s9,520(sp)
    80000310:	00048513          	mv	a0,s1
    80000314:	24813483          	ld	s1,584(sp)
    80000318:	29010113          	addi	sp,sp,656
    8000031c:	00008067          	ret
    80000320:	000a8513          	mv	a0,s5
    80000324:	db1ff0ef          	jal	ra,800000d4 <strlen>
    80000328:	00a9e663          	bltu	s3,a0,80000334 <sprintf+0xfc>
    8000032c:	00044783          	lbu	a5,0(s0)
    80000330:	f99ff06f          	j	800002c8 <sprintf+0x90>
    80000334:	00144783          	lbu	a5,1(s0)
    80000338:	07778a63          	beq	a5,s7,800003ac <sprintf+0x174>
    8000033c:	03878263          	beq	a5,s8,80000360 <sprintf+0x128>
    80000340:	0d979863          	bne	a5,s9,80000410 <sprintf+0x1d8>
    80000344:	009a07b3          	add	a5,s4,s1
    80000348:	0029091b          	addiw	s2,s2,2
    8000034c:	01978023          	sb	s9,0(a5)
    80000350:	00090793          	mv	a5,s2
    80000354:	0014849b          	addiw	s1,s1,1
    80000358:	f767e0e3          	bltu	a5,s6,800002b8 <sprintf+0x80>
    8000035c:	f85ff06f          	j	800002e0 <sprintf+0xa8>
    80000360:	00013703          	ld	a4,0(sp)
    80000364:	0029091b          	addiw	s2,s2,2
    80000368:	00090793          	mv	a5,s2
    8000036c:	00073683          	ld	a3,0(a4)
    80000370:	00870713          	addi	a4,a4,8
    80000374:	00e13023          	sd	a4,0(sp)
    80000378:	0006c603          	lbu	a2,0(a3)
    8000037c:	f60600e3          	beqz	a2,800002dc <sprintf+0xa4>
    80000380:	0014871b          	addiw	a4,s1,1
    80000384:	00168693          	addi	a3,a3,1
    80000388:	00ea05b3          	add	a1,s4,a4
    8000038c:	fec58fa3          	sb	a2,-1(a1)
    80000390:	0006c603          	lbu	a2,0(a3)
    80000394:	0007049b          	sext.w	s1,a4
    80000398:	00168693          	addi	a3,a3,1
    8000039c:	00170713          	addi	a4,a4,1
    800003a0:	fe0614e3          	bnez	a2,80000388 <sprintf+0x150>
    800003a4:	f167eae3          	bltu	a5,s6,800002b8 <sprintf+0x80>
    800003a8:	f39ff06f          	j	800002e0 <sprintf+0xa8>
    800003ac:	00013783          	ld	a5,0(sp)
    800003b0:	00810593          	addi	a1,sp,8
    800003b4:	0007a503          	lw	a0,0(a5)
    800003b8:	00878793          	addi	a5,a5,8
    800003bc:	00f13023          	sd	a5,0(sp)
    800003c0:	d8dff0ef          	jal	ra,8000014c <int2str>
    800003c4:	02a05e63          	blez	a0,80000400 <sprintf+0x1c8>
    800003c8:	fff5061b          	addiw	a2,a0,-1
    800003cc:	02061613          	slli	a2,a2,0x20
    800003d0:	02065613          	srli	a2,a2,0x20
    800003d4:	00910693          	addi	a3,sp,9
    800003d8:	00810793          	addi	a5,sp,8
    800003dc:	009a0733          	add	a4,s4,s1
    800003e0:	0005051b          	sext.w	a0,a0
    800003e4:	00c68633          	add	a2,a3,a2
    800003e8:	0007c683          	lbu	a3,0(a5)
    800003ec:	00178793          	addi	a5,a5,1
    800003f0:	00170713          	addi	a4,a4,1
    800003f4:	fed70fa3          	sb	a3,-1(a4)
    800003f8:	fec798e3          	bne	a5,a2,800003e8 <sprintf+0x1b0>
    800003fc:	00a484bb          	addw	s1,s1,a0
    80000400:	0029091b          	addiw	s2,s2,2
    80000404:	00090793          	mv	a5,s2
    80000408:	eb67e8e3          	bltu	a5,s6,800002b8 <sprintf+0x80>
    8000040c:	ed5ff06f          	j	800002e0 <sprintf+0xa8>
    80000410:	fff00493          	li	s1,-1
    80000414:	ed5ff06f          	j	800002e8 <sprintf+0xb0>
    80000418:	00000493          	li	s1,0
    8000041c:	ec9ff06f          	j	800002e4 <sprintf+0xac>
