
/home/porterlu/ysyx-workbench/am-kernels/tests/cpu-tests/build/func_test-riscv64-npc.elf:     file format elf64-littleriscv


Disassembly of section .text:

0000000080000000 <_start>:
    80000000:	00000413          	li	s0,0
    80000004:	00009117          	auipc	sp,0x9
    80000008:	ffc10113          	addi	sp,sp,-4 # 80009000 <_end>
    8000000c:	0d8000ef          	jal	ra,800000e4 <_trm_init>

0000000080000010 <func1>:
    80000010:	00100793          	li	a5,1
    80000014:	00a7a533          	slt	a0,a5,a0
    80000018:	00008067          	ret

000000008000001c <func2>:
    8000001c:	00200793          	li	a5,2
    80000020:	00a7c663          	blt	a5,a0,8000002c <func2+0x10>
    80000024:	fff5051b          	addiw	a0,a0,-1
    80000028:	fe9ff06f          	j	80000010 <func1>
    8000002c:	00200513          	li	a0,2
    80000030:	00008067          	ret

0000000080000034 <func3>:
    80000034:	00300793          	li	a5,3
    80000038:	00a7c663          	blt	a5,a0,80000044 <func3+0x10>
    8000003c:	fff5051b          	addiw	a0,a0,-1
    80000040:	fddff06f          	j	8000001c <func2>
    80000044:	00300513          	li	a0,3
    80000048:	00008067          	ret

000000008000004c <func4>:
    8000004c:	00400793          	li	a5,4
    80000050:	00a7c663          	blt	a5,a0,8000005c <func4+0x10>
    80000054:	fff5051b          	addiw	a0,a0,-1
    80000058:	fddff06f          	j	80000034 <func3>
    8000005c:	00400513          	li	a0,4
    80000060:	00008067          	ret

0000000080000064 <func5>:
    80000064:	00500793          	li	a5,5
    80000068:	00a7c663          	blt	a5,a0,80000074 <func5+0x10>
    8000006c:	fff5051b          	addiw	a0,a0,-1
    80000070:	fddff06f          	j	8000004c <func4>
    80000074:	00500513          	li	a0,5
    80000078:	00008067          	ret

000000008000007c <func6>:
    8000007c:	00600793          	li	a5,6
    80000080:	00a7c663          	blt	a5,a0,8000008c <func6+0x10>
    80000084:	fff5051b          	addiw	a0,a0,-1
    80000088:	fddff06f          	j	80000064 <func5>
    8000008c:	ffe5051b          	addiw	a0,a0,-2
    80000090:	fd5ff06f          	j	80000064 <func5>

0000000080000094 <check>:
    80000094:	00050463          	beqz	a0,8000009c <check+0x8>
    80000098:	00008067          	ret
    8000009c:	ff010113          	addi	sp,sp,-16
    800000a0:	00100513          	li	a0,1
    800000a4:	00113423          	sd	ra,8(sp)
    800000a8:	034000ef          	jal	ra,800000dc <halt>

00000000800000ac <main>:
    800000ac:	ff010113          	addi	sp,sp,-16
    800000b0:	00113423          	sd	ra,8(sp)
    800000b4:	00000797          	auipc	a5,0x0
    800000b8:	07c7b783          	ld	a5,124(a5) # 80000130 <func+0x28>
    800000bc:	3e800513          	li	a0,1000
    800000c0:	000780e7          	jalr	a5
    800000c4:	00a02533          	sgtz	a0,a0
    800000c8:	fcdff0ef          	jal	ra,80000094 <check>
    800000cc:	00813083          	ld	ra,8(sp)
    800000d0:	00000513          	li	a0,0
    800000d4:	01010113          	addi	sp,sp,16
    800000d8:	00008067          	ret

00000000800000dc <halt>:
    800000dc:	00100073          	ebreak
    800000e0:	0000006f          	j	800000e0 <halt+0x4>

00000000800000e4 <_trm_init>:
    800000e4:	ff010113          	addi	sp,sp,-16
    800000e8:	00000517          	auipc	a0,0x0
    800000ec:	01850513          	addi	a0,a0,24 # 80000100 <_etext>
    800000f0:	00113423          	sd	ra,8(sp)
    800000f4:	fb9ff0ef          	jal	ra,800000ac <main>
    800000f8:	00100073          	ebreak
    800000fc:	0000006f          	j	800000fc <_trm_init+0x18>
