
/home/porterlu/ysyx-workbench/am-kernels/tests/cpu-tests/build/hello_world-riscv64-npc.elf:     file format elf64-littleriscv


Disassembly of section .text:

0000000080000000 <_start>:
    80000000:	00000413          	li	s0,0
    80000004:	00009117          	auipc	sp,0x9
    80000008:	ffc10113          	addi	sp,sp,-4 # 80009000 <_end>
    8000000c:	02c000ef          	jal	ra,80000038 <_trm_init>

0000000080000010 <main>:
    80000010:	ff010113          	addi	sp,sp,-16
    80000014:	00000517          	auipc	a0,0x0
    80000018:	32450513          	addi	a0,a0,804 # 80000338 <_etext>
    8000001c:	00113423          	sd	ra,8(sp)
    80000020:	120000ef          	jal	ra,80000140 <printf>
    80000024:	00813083          	ld	ra,8(sp)
    80000028:	00000513          	li	a0,0
    8000002c:	01010113          	addi	sp,sp,16
    80000030:	00008067          	ret

0000000080000034 <putch>:
    80000034:	00008067          	ret

0000000080000038 <_trm_init>:
    80000038:	ff010113          	addi	sp,sp,-16
    8000003c:	00000517          	auipc	a0,0x0
    80000040:	30c50513          	addi	a0,a0,780 # 80000348 <mainargs>
    80000044:	00113423          	sd	ra,8(sp)
    80000048:	fc9ff0ef          	jal	ra,80000010 <main>
    8000004c:	00100073          	ebreak
    80000050:	0000006f          	j	80000050 <_trm_init+0x18>

0000000080000054 <int2str>:
    80000054:	00050613          	mv	a2,a0
    80000058:	00051e63          	bnez	a0,80000074 <int2str+0x20>
    8000005c:	03000793          	li	a5,48
    80000060:	00158893          	addi	a7,a1,1
    80000064:	00f58023          	sb	a5,0(a1)
    80000068:	00100513          	li	a0,1
    8000006c:	00088023          	sb	zero,0(a7)
    80000070:	00008067          	ret
    80000074:	0a055e63          	bgez	a0,80000130 <int2str+0xdc>
    80000078:	02d00793          	li	a5,45
    8000007c:	00f58023          	sb	a5,0(a1)
    80000080:	00100f13          	li	t5,1
    80000084:	00000693          	li	a3,0
    80000088:	00100e93          	li	t4,1
    8000008c:	01e58733          	add	a4,a1,t5
    80000090:	00070813          	mv	a6,a4
    80000094:	000f0513          	mv	a0,t5
    80000098:	00a00893          	li	a7,10
    8000009c:	03000e13          	li	t3,48
    800000a0:	031667bb          	remw	a5,a2,a7
    800000a4:	0ff7f793          	andi	a5,a5,255
    800000a8:	40fe033b          	subw	t1,t3,a5
    800000ac:	0307879b          	addiw	a5,a5,48
    800000b0:	0ff7f793          	andi	a5,a5,255
    800000b4:	000e8463          	beqz	t4,800000bc <int2str+0x68>
    800000b8:	0ff37793          	andi	a5,t1,255
    800000bc:	0316463b          	divw	a2,a2,a7
    800000c0:	00f80023          	sb	a5,0(a6)
    800000c4:	0015051b          	addiw	a0,a0,1
    800000c8:	00180813          	addi	a6,a6,1
    800000cc:	fc061ae3          	bnez	a2,800000a0 <int2str+0x4c>
    800000d0:	00af07bb          	addw	a5,t5,a0
    800000d4:	4017d61b          	sraiw	a2,a5,0x1
    800000d8:	00a588b3          	add	a7,a1,a0
    800000dc:	f8cf58e3          	bge	t5,a2,8000006c <int2str+0x18>
    800000e0:	fff6081b          	addiw	a6,a2,-1
    800000e4:	01e687b3          	add	a5,a3,t5
    800000e8:	41e806bb          	subw	a3,a6,t5
    800000ec:	00158613          	addi	a2,a1,1
    800000f0:	02069693          	slli	a3,a3,0x20
    800000f4:	40f507b3          	sub	a5,a0,a5
    800000f8:	01e60633          	add	a2,a2,t5
    800000fc:	0206d693          	srli	a3,a3,0x20
    80000100:	00f585b3          	add	a1,a1,a5
    80000104:	00d60633          	add	a2,a2,a3
    80000108:	00070793          	mv	a5,a4
    8000010c:	0007c683          	lbu	a3,0(a5)
    80000110:	0005c703          	lbu	a4,0(a1)
    80000114:	00178793          	addi	a5,a5,1
    80000118:	00d58023          	sb	a3,0(a1)
    8000011c:	fee78fa3          	sb	a4,-1(a5)
    80000120:	fff58593          	addi	a1,a1,-1
    80000124:	fec794e3          	bne	a5,a2,8000010c <int2str+0xb8>
    80000128:	00088023          	sb	zero,0(a7)
    8000012c:	00008067          	ret
    80000130:	00000f13          	li	t5,0
    80000134:	00100693          	li	a3,1
    80000138:	00000e93          	li	t4,0
    8000013c:	f51ff06f          	j	8000008c <int2str+0x38>

0000000080000140 <printf>:
    80000140:	d6010113          	addi	sp,sp,-672
    80000144:	28f13423          	sd	a5,648(sp)
    80000148:	26810793          	addi	a5,sp,616
    8000014c:	23413823          	sd	s4,560(sp)
    80000150:	24113c23          	sd	ra,600(sp)
    80000154:	24813823          	sd	s0,592(sp)
    80000158:	24913423          	sd	s1,584(sp)
    8000015c:	25213023          	sd	s2,576(sp)
    80000160:	23313c23          	sd	s3,568(sp)
    80000164:	23513423          	sd	s5,552(sp)
    80000168:	23613023          	sd	s6,544(sp)
    8000016c:	21713c23          	sd	s7,536(sp)
    80000170:	21813823          	sd	s8,528(sp)
    80000174:	21913423          	sd	s9,520(sp)
    80000178:	21a13023          	sd	s10,512(sp)
    8000017c:	00050a13          	mv	s4,a0
    80000180:	26b13423          	sd	a1,616(sp)
    80000184:	26c13823          	sd	a2,624(sp)
    80000188:	26d13c23          	sd	a3,632(sp)
    8000018c:	28e13023          	sd	a4,640(sp)
    80000190:	29013823          	sd	a6,656(sp)
    80000194:	29113c23          	sd	a7,664(sp)
    80000198:	00f13023          	sd	a5,0(sp)
    8000019c:	174000ef          	jal	ra,80000310 <strlen>
    800001a0:	16050463          	beqz	a0,80000308 <printf+0x1c8>
    800001a4:	00050a93          	mv	s5,a0
    800001a8:	00000993          	li	s3,0
    800001ac:	00000493          	li	s1,0
    800001b0:	00000413          	li	s0,0
    800001b4:	02500b13          	li	s6,37
    800001b8:	06400b93          	li	s7,100
    800001bc:	07300c13          	li	s8,115
    800001c0:	00100c93          	li	s9,1
    800001c4:	008a0433          	add	s0,s4,s0
    800001c8:	00044503          	lbu	a0,0(s0)
    800001cc:	0014891b          	addiw	s2,s1,1
    800001d0:	05650a63          	beq	a0,s6,80000224 <printf+0xe4>
    800001d4:	00090493          	mv	s1,s2
    800001d8:	e5dff0ef          	jal	ra,80000034 <putch>
    800001dc:	0019899b          	addiw	s3,s3,1
    800001e0:	00090413          	mv	s0,s2
    800001e4:	ff5460e3          	bltu	s0,s5,800001c4 <printf+0x84>
    800001e8:	25813083          	ld	ra,600(sp)
    800001ec:	25013403          	ld	s0,592(sp)
    800001f0:	24813483          	ld	s1,584(sp)
    800001f4:	24013903          	ld	s2,576(sp)
    800001f8:	23013a03          	ld	s4,560(sp)
    800001fc:	22813a83          	ld	s5,552(sp)
    80000200:	22013b03          	ld	s6,544(sp)
    80000204:	21813b83          	ld	s7,536(sp)
    80000208:	21013c03          	ld	s8,528(sp)
    8000020c:	20813c83          	ld	s9,520(sp)
    80000210:	20013d03          	ld	s10,512(sp)
    80000214:	00098513          	mv	a0,s3
    80000218:	23813983          	ld	s3,568(sp)
    8000021c:	2a010113          	addi	sp,sp,672
    80000220:	00008067          	ret
    80000224:	000a0513          	mv	a0,s4
    80000228:	0e8000ef          	jal	ra,80000310 <strlen>
    8000022c:	00a96663          	bltu	s2,a0,80000238 <printf+0xf8>
    80000230:	00044503          	lbu	a0,0(s0)
    80000234:	fa1ff06f          	j	800001d4 <printf+0x94>
    80000238:	00144783          	lbu	a5,1(s0)
    8000023c:	07778463          	beq	a5,s7,800002a4 <printf+0x164>
    80000240:	03878063          	beq	a5,s8,80000260 <printf+0x120>
    80000244:	0b679e63          	bne	a5,s6,80000300 <printf+0x1c0>
    80000248:	0024849b          	addiw	s1,s1,2
    8000024c:	02500513          	li	a0,37
    80000250:	00048413          	mv	s0,s1
    80000254:	de1ff0ef          	jal	ra,80000034 <putch>
    80000258:	f75466e3          	bltu	s0,s5,800001c4 <printf+0x84>
    8000025c:	f8dff06f          	j	800001e8 <printf+0xa8>
    80000260:	00013783          	ld	a5,0(sp)
    80000264:	0024849b          	addiw	s1,s1,2
    80000268:	00048413          	mv	s0,s1
    8000026c:	0007b903          	ld	s2,0(a5)
    80000270:	00878793          	addi	a5,a5,8
    80000274:	00f13023          	sd	a5,0(sp)
    80000278:	00094503          	lbu	a0,0(s2)
    8000027c:	f60504e3          	beqz	a0,800001e4 <printf+0xa4>
    80000280:	412c8d3b          	subw	s10,s9,s2
    80000284:	013d0d3b          	addw	s10,s10,s3
    80000288:	dadff0ef          	jal	ra,80000034 <putch>
    8000028c:	00194503          	lbu	a0,1(s2)
    80000290:	012d09bb          	addw	s3,s10,s2
    80000294:	00190913          	addi	s2,s2,1
    80000298:	fe0518e3          	bnez	a0,80000288 <printf+0x148>
    8000029c:	f35464e3          	bltu	s0,s5,800001c4 <printf+0x84>
    800002a0:	f49ff06f          	j	800001e8 <printf+0xa8>
    800002a4:	00013783          	ld	a5,0(sp)
    800002a8:	00810593          	addi	a1,sp,8
    800002ac:	0007a503          	lw	a0,0(a5)
    800002b0:	00878793          	addi	a5,a5,8
    800002b4:	00f13023          	sd	a5,0(sp)
    800002b8:	d9dff0ef          	jal	ra,80000054 <int2str>
    800002bc:	02a05a63          	blez	a0,800002f0 <printf+0x1b0>
    800002c0:	fff5091b          	addiw	s2,a0,-1
    800002c4:	02091913          	slli	s2,s2,0x20
    800002c8:	02095913          	srli	s2,s2,0x20
    800002cc:	00910793          	addi	a5,sp,9
    800002d0:	00810413          	addi	s0,sp,8
    800002d4:	00050d1b          	sext.w	s10,a0
    800002d8:	01278933          	add	s2,a5,s2
    800002dc:	00044503          	lbu	a0,0(s0)
    800002e0:	00140413          	addi	s0,s0,1
    800002e4:	d51ff0ef          	jal	ra,80000034 <putch>
    800002e8:	fe891ae3          	bne	s2,s0,800002dc <printf+0x19c>
    800002ec:	01a989bb          	addw	s3,s3,s10
    800002f0:	0024849b          	addiw	s1,s1,2
    800002f4:	00048413          	mv	s0,s1
    800002f8:	ed5466e3          	bltu	s0,s5,800001c4 <printf+0x84>
    800002fc:	eedff06f          	j	800001e8 <printf+0xa8>
    80000300:	fff00993          	li	s3,-1
    80000304:	ee5ff06f          	j	800001e8 <printf+0xa8>
    80000308:	00000993          	li	s3,0
    8000030c:	eddff06f          	j	800001e8 <printf+0xa8>

0000000080000310 <strlen>:
    80000310:	00054783          	lbu	a5,0(a0)
    80000314:	00050713          	mv	a4,a0
    80000318:	00000513          	li	a0,0
    8000031c:	00078c63          	beqz	a5,80000334 <strlen+0x24>
    80000320:	00150513          	addi	a0,a0,1
    80000324:	00a707b3          	add	a5,a4,a0
    80000328:	0007c783          	lbu	a5,0(a5)
    8000032c:	fe079ae3          	bnez	a5,80000320 <strlen+0x10>
    80000330:	00008067          	ret
    80000334:	00008067          	ret
