
/home/porterlu/ysyx-workbench/am-kernels/tests/cpu-tests/build/string-riscv64-npc.elf:     file format elf64-littleriscv


Disassembly of section .text:

0000000080000000 <_start>:
    80000000:	00000413          	li	s0,0
    80000004:	00009117          	auipc	sp,0x9
    80000008:	ffc10113          	addi	sp,sp,-4 # 80009000 <_end>
    8000000c:	11c000ef          	jal	ra,80000128 <_trm_init>

0000000080000010 <check>:
    80000010:	00050463          	beqz	a0,80000018 <check+0x8>
    80000014:	00008067          	ret
    80000018:	ff010113          	addi	sp,sp,-16
    8000001c:	00100513          	li	a0,1
    80000020:	00113423          	sd	ra,8(sp)
    80000024:	0fc000ef          	jal	ra,80000120 <halt>

0000000080000028 <main>:
    80000028:	ff010113          	addi	sp,sp,-16
    8000002c:	00813023          	sd	s0,0(sp)
    80000030:	00000417          	auipc	s0,0x0
    80000034:	2c040413          	addi	s0,s0,704 # 800002f0 <s>
    80000038:	01043583          	ld	a1,16(s0)
    8000003c:	00043503          	ld	a0,0(s0)
    80000040:	00113423          	sd	ra,8(sp)
    80000044:	188000ef          	jal	ra,800001cc <strcmp>
    80000048:	00153513          	seqz	a0,a0
    8000004c:	fc5ff0ef          	jal	ra,80000010 <check>
    80000050:	00843583          	ld	a1,8(s0)
    80000054:	00043503          	ld	a0,0(s0)
    80000058:	174000ef          	jal	ra,800001cc <strcmp>
    8000005c:	01f5551b          	srliw	a0,a0,0x1f
    80000060:	fb1ff0ef          	jal	ra,80000010 <check>
    80000064:	00843583          	ld	a1,8(s0)
    80000068:	00043503          	ld	a0,0(s0)
    8000006c:	00158593          	addi	a1,a1,1
    80000070:	00150513          	addi	a0,a0,1
    80000074:	158000ef          	jal	ra,800001cc <strcmp>
    80000078:	01f5551b          	srliw	a0,a0,0x1f
    8000007c:	f95ff0ef          	jal	ra,80000010 <check>
    80000080:	00843583          	ld	a1,8(s0)
    80000084:	00043503          	ld	a0,0(s0)
    80000088:	00258593          	addi	a1,a1,2
    8000008c:	00250513          	addi	a0,a0,2
    80000090:	13c000ef          	jal	ra,800001cc <strcmp>
    80000094:	01f5551b          	srliw	a0,a0,0x1f
    80000098:	f79ff0ef          	jal	ra,80000010 <check>
    8000009c:	00843583          	ld	a1,8(s0)
    800000a0:	00043503          	ld	a0,0(s0)
    800000a4:	00358593          	addi	a1,a1,3
    800000a8:	00350513          	addi	a0,a0,3
    800000ac:	120000ef          	jal	ra,800001cc <strcmp>
    800000b0:	01f5551b          	srliw	a0,a0,0x1f
    800000b4:	f5dff0ef          	jal	ra,80000010 <check>
    800000b8:	00000597          	auipc	a1,0x0
    800000bc:	26858593          	addi	a1,a1,616 # 80000320 <str1>
    800000c0:	00000517          	auipc	a0,0x0
    800000c4:	26850513          	addi	a0,a0,616 # 80000328 <str>
    800000c8:	07c000ef          	jal	ra,80000144 <strcpy>
    800000cc:	01843583          	ld	a1,24(s0)
    800000d0:	094000ef          	jal	ra,80000164 <strcat>
    800000d4:	02043583          	ld	a1,32(s0)
    800000d8:	0f4000ef          	jal	ra,800001cc <strcmp>
    800000dc:	00153513          	seqz	a0,a0
    800000e0:	f31ff0ef          	jal	ra,80000010 <check>
    800000e4:	00500613          	li	a2,5
    800000e8:	02300593          	li	a1,35
    800000ec:	00000517          	auipc	a0,0x0
    800000f0:	23c50513          	addi	a0,a0,572 # 80000328 <str>
    800000f4:	128000ef          	jal	ra,8000021c <memset>
    800000f8:	02843583          	ld	a1,40(s0)
    800000fc:	00500613          	li	a2,5
    80000100:	13c000ef          	jal	ra,8000023c <memcmp>
    80000104:	00153513          	seqz	a0,a0
    80000108:	f09ff0ef          	jal	ra,80000010 <check>
    8000010c:	00813083          	ld	ra,8(sp)
    80000110:	00013403          	ld	s0,0(sp)
    80000114:	00000513          	li	a0,0
    80000118:	01010113          	addi	sp,sp,16
    8000011c:	00008067          	ret

0000000080000120 <halt>:
    80000120:	00100073          	ebreak
    80000124:	0000006f          	j	80000124 <halt+0x4>

0000000080000128 <_trm_init>:
    80000128:	ff010113          	addi	sp,sp,-16
    8000012c:	00000517          	auipc	a0,0x0
    80000130:	1bc50513          	addi	a0,a0,444 # 800002e8 <mainargs>
    80000134:	00113423          	sd	ra,8(sp)
    80000138:	ef1ff0ef          	jal	ra,80000028 <main>
    8000013c:	00100073          	ebreak
    80000140:	0000006f          	j	80000140 <_trm_init+0x18>

0000000080000144 <strcpy>:
    80000144:	00050793          	mv	a5,a0
    80000148:	0005c683          	lbu	a3,0(a1)
    8000014c:	00178793          	addi	a5,a5,1
    80000150:	00158593          	addi	a1,a1,1
    80000154:	fed78fa3          	sb	a3,-1(a5)
    80000158:	fff5c703          	lbu	a4,-1(a1)
    8000015c:	fe0716e3          	bnez	a4,80000148 <strcpy+0x4>
    80000160:	00008067          	ret

0000000080000164 <strcat>:
    80000164:	00054783          	lbu	a5,0(a0)
    80000168:	04078c63          	beqz	a5,800001c0 <strcat+0x5c>
    8000016c:	00150713          	addi	a4,a0,1
    80000170:	00000613          	li	a2,0
    80000174:	00074683          	lbu	a3,0(a4)
    80000178:	00070793          	mv	a5,a4
    8000017c:	00160613          	addi	a2,a2,1
    80000180:	00170713          	addi	a4,a4,1
    80000184:	fe0698e3          	bnez	a3,80000174 <strcat+0x10>
    80000188:	0005c683          	lbu	a3,0(a1)
    8000018c:	02068663          	beqz	a3,800001b8 <strcat+0x54>
    80000190:	00000793          	li	a5,0
    80000194:	00c78733          	add	a4,a5,a2
    80000198:	00e50733          	add	a4,a0,a4
    8000019c:	00178793          	addi	a5,a5,1
    800001a0:	00d70023          	sb	a3,0(a4)
    800001a4:	00f58733          	add	a4,a1,a5
    800001a8:	00074683          	lbu	a3,0(a4)
    800001ac:	fe0694e3          	bnez	a3,80000194 <strcat+0x30>
    800001b0:	00c787b3          	add	a5,a5,a2
    800001b4:	00f507b3          	add	a5,a0,a5
    800001b8:	00078023          	sb	zero,0(a5)
    800001bc:	00008067          	ret
    800001c0:	00050793          	mv	a5,a0
    800001c4:	00000613          	li	a2,0
    800001c8:	fc1ff06f          	j	80000188 <strcat+0x24>

00000000800001cc <strcmp>:
    800001cc:	00054683          	lbu	a3,0(a0)
    800001d0:	0005c703          	lbu	a4,0(a1)
    800001d4:	00150793          	addi	a5,a0,1
    800001d8:	00158593          	addi	a1,a1,1
    800001dc:	02068063          	beqz	a3,800001fc <strcmp+0x30>
    800001e0:	02070463          	beqz	a4,80000208 <strcmp+0x3c>
    800001e4:	02e69863          	bne	a3,a4,80000214 <strcmp+0x48>
    800001e8:	0007c683          	lbu	a3,0(a5)
    800001ec:	0005c703          	lbu	a4,0(a1)
    800001f0:	00178793          	addi	a5,a5,1
    800001f4:	00158593          	addi	a1,a1,1
    800001f8:	fe0694e3          	bnez	a3,800001e0 <strcmp+0x14>
    800001fc:	00000513          	li	a0,0
    80000200:	40e5053b          	subw	a0,a0,a4
    80000204:	00008067          	ret
    80000208:	0006851b          	sext.w	a0,a3
    8000020c:	40e5053b          	subw	a0,a0,a4
    80000210:	00008067          	ret
    80000214:	40e6853b          	subw	a0,a3,a4
    80000218:	00008067          	ret

000000008000021c <memset>:
    8000021c:	0ff5f593          	andi	a1,a1,255
    80000220:	00050793          	mv	a5,a0
    80000224:	00c50733          	add	a4,a0,a2
    80000228:	00c05863          	blez	a2,80000238 <memset+0x1c>
    8000022c:	00b78023          	sb	a1,0(a5)
    80000230:	00178793          	addi	a5,a5,1
    80000234:	fee79ce3          	bne	a5,a4,8000022c <memset+0x10>
    80000238:	00008067          	ret

000000008000023c <memcmp>:
    8000023c:	02060663          	beqz	a2,80000268 <memcmp+0x2c>
    80000240:	00c50633          	add	a2,a0,a2
    80000244:	0080006f          	j	8000024c <memcmp+0x10>
    80000248:	02c50063          	beq	a0,a2,80000268 <memcmp+0x2c>
    8000024c:	00054783          	lbu	a5,0(a0)
    80000250:	0005c703          	lbu	a4,0(a1)
    80000254:	00150513          	addi	a0,a0,1
    80000258:	00158593          	addi	a1,a1,1
    8000025c:	fee786e3          	beq	a5,a4,80000248 <memcmp+0xc>
    80000260:	40e7853b          	subw	a0,a5,a4
    80000264:	00008067          	ret
    80000268:	00000513          	li	a0,0
    8000026c:	00008067          	ret
