
/home/porterlu/ysyx-workbench/am-kernels/benchmarks/microbench/build/microbench-riscv64-nemu.elf:     file format elf64-littleriscv


Disassembly of section .text:

0000000080000000 <_start>:
    80000000:	00000413          	li	s0,0
    80000004:	0000f117          	auipc	sp,0xf
    80000008:	ffc10113          	addi	sp,sp,-4 # 8000f000 <_end>
    8000000c:	5f0040ef          	jal	ra,800045fc <_trm_init>

0000000080000010 <bench_sieve_prepare>:
    80000010:	00006797          	auipc	a5,0x6
    80000014:	3707b783          	ld	a5,880(a5) # 80006380 <setting>
    80000018:	0007a783          	lw	a5,0(a5)
    8000001c:	ff010113          	addi	sp,sp,-16
    80000020:	00813023          	sd	s0,0(sp)
    80000024:	41f7d51b          	sraiw	a0,a5,0x1f
    80000028:	01d5551b          	srliw	a0,a0,0x1d
    8000002c:	00f5053b          	addw	a0,a0,a5
    80000030:	4035551b          	sraiw	a0,a0,0x3
    80000034:	00006417          	auipc	s0,0x6
    80000038:	22c40413          	addi	s0,s0,556 # 80006260 <N>
    8000003c:	0805051b          	addiw	a0,a0,128
    80000040:	00f42023          	sw	a5,0(s0)
    80000044:	00113423          	sd	ra,8(sp)
    80000048:	014020ef          	jal	ra,8000205c <bench_alloc>
    8000004c:	00042783          	lw	a5,0(s0)
    80000050:	00006717          	auipc	a4,0x6
    80000054:	20a73c23          	sd	a0,536(a4) # 80006268 <primes>
    80000058:	fe100693          	li	a3,-31
    8000005c:	41f7d71b          	sraiw	a4,a5,0x1f
    80000060:	01b7571b          	srliw	a4,a4,0x1b
    80000064:	00f7073b          	addw	a4,a4,a5
    80000068:	02d7c063          	blt	a5,a3,80000088 <bench_sieve_prepare+0x78>
    8000006c:	4057571b          	sraiw	a4,a4,0x5
    80000070:	00000793          	li	a5,0
    80000074:	fff00693          	li	a3,-1
    80000078:	00d52023          	sw	a3,0(a0)
    8000007c:	0017879b          	addiw	a5,a5,1
    80000080:	00450513          	addi	a0,a0,4
    80000084:	fef75ae3          	bge	a4,a5,80000078 <bench_sieve_prepare+0x68>
    80000088:	00813083          	ld	ra,8(sp)
    8000008c:	00013403          	ld	s0,0(sp)
    80000090:	01010113          	addi	sp,sp,16
    80000094:	00008067          	ret

0000000080000098 <bench_sieve_run>:
    80000098:	00006597          	auipc	a1,0x6
    8000009c:	1c85a583          	lw	a1,456(a1) # 80006260 <N>
    800000a0:	10b05c63          	blez	a1,800001b8 <bench_sieve_run+0x120>
    800000a4:	00006617          	auipc	a2,0x6
    800000a8:	1c460613          	addi	a2,a2,452 # 80006268 <primes>
    800000ac:	00063683          	ld	a3,0(a2)
    800000b0:	0006a783          	lw	a5,0(a3)
    800000b4:	0017d79b          	srliw	a5,a5,0x1
    800000b8:	0017f793          	andi	a5,a5,1
    800000bc:	00079c63          	bnez	a5,800000d4 <bench_sieve_run+0x3c>
    800000c0:	10c0006f          	j	800001cc <bench_sieve_run+0x134>
    800000c4:	00072703          	lw	a4,0(a4)
    800000c8:	00f7573b          	srlw	a4,a4,a5
    800000cc:	00177713          	andi	a4,a4,1
    800000d0:	0e070c63          	beqz	a4,800001c8 <bench_sieve_run+0x130>
    800000d4:	0017879b          	addiw	a5,a5,1
    800000d8:	4057d71b          	sraiw	a4,a5,0x5
    800000dc:	00271713          	slli	a4,a4,0x2
    800000e0:	00e68733          	add	a4,a3,a4
    800000e4:	fef5d0e3          	bge	a1,a5,800000c4 <bench_sieve_run+0x2c>
    800000e8:	00300793          	li	a5,3
    800000ec:	0cb7d663          	bge	a5,a1,800001b8 <bench_sieve_run+0x120>
    800000f0:	00063803          	ld	a6,0(a2)
    800000f4:	00100893          	li	a7,1
    800000f8:	00200613          	li	a2,2
    800000fc:	0100006f          	j	8000010c <bench_sieve_run+0x74>
    80000100:	0016061b          	addiw	a2,a2,1
    80000104:	02c607bb          	mulw	a5,a2,a2
    80000108:	06f5c063          	blt	a1,a5,80000168 <bench_sieve_run+0xd0>
    8000010c:	40565793          	srai	a5,a2,0x5
    80000110:	00279793          	slli	a5,a5,0x2
    80000114:	00f807b3          	add	a5,a6,a5
    80000118:	0007a783          	lw	a5,0(a5)
    8000011c:	00c7d7bb          	srlw	a5,a5,a2
    80000120:	0017f793          	andi	a5,a5,1
    80000124:	fc078ee3          	beqz	a5,80000100 <bench_sieve_run+0x68>
    80000128:	0016169b          	slliw	a3,a2,0x1
    8000012c:	fcd5cae3          	blt	a1,a3,80000100 <bench_sieve_run+0x68>
    80000130:	4056d713          	srai	a4,a3,0x5
    80000134:	00271713          	slli	a4,a4,0x2
    80000138:	00e80733          	add	a4,a6,a4
    8000013c:	00072503          	lw	a0,0(a4)
    80000140:	01f6f793          	andi	a5,a3,31
    80000144:	00f897b3          	sll	a5,a7,a5
    80000148:	fff7c793          	not	a5,a5
    8000014c:	00a7f7b3          	and	a5,a5,a0
    80000150:	00f72023          	sw	a5,0(a4)
    80000154:	00d606bb          	addw	a3,a2,a3
    80000158:	fcd5dce3          	bge	a1,a3,80000130 <bench_sieve_run+0x98>
    8000015c:	0016061b          	addiw	a2,a2,1
    80000160:	02c607bb          	mulw	a5,a2,a2
    80000164:	faf5d4e3          	bge	a1,a5,8000010c <bench_sieve_run+0x74>
    80000168:	00006797          	auipc	a5,0x6
    8000016c:	0e07ae23          	sw	zero,252(a5) # 80006264 <ans>
    80000170:	00000613          	li	a2,0
    80000174:	00000693          	li	a3,0
    80000178:	00200713          	li	a4,2
    8000017c:	40575793          	srai	a5,a4,0x5
    80000180:	00279793          	slli	a5,a5,0x2
    80000184:	00f807b3          	add	a5,a6,a5
    80000188:	0007a783          	lw	a5,0(a5)
    8000018c:	00e7d7bb          	srlw	a5,a5,a4
    80000190:	0017f793          	andi	a5,a5,1
    80000194:	0017071b          	addiw	a4,a4,1
    80000198:	00078663          	beqz	a5,800001a4 <bench_sieve_run+0x10c>
    8000019c:	0016869b          	addiw	a3,a3,1
    800001a0:	00100613          	li	a2,1
    800001a4:	fce5dce3          	bge	a1,a4,8000017c <bench_sieve_run+0xe4>
    800001a8:	02060063          	beqz	a2,800001c8 <bench_sieve_run+0x130>
    800001ac:	00006797          	auipc	a5,0x6
    800001b0:	0ad7ac23          	sw	a3,184(a5) # 80006264 <ans>
    800001b4:	00008067          	ret
    800001b8:	00006797          	auipc	a5,0x6
    800001bc:	0a07a623          	sw	zero,172(a5) # 80006264 <ans>
    800001c0:	00100793          	li	a5,1
    800001c4:	00b7c663          	blt	a5,a1,800001d0 <bench_sieve_run+0x138>
    800001c8:	00008067          	ret
    800001cc:	00008067          	ret
    800001d0:	00006817          	auipc	a6,0x6
    800001d4:	09883803          	ld	a6,152(a6) # 80006268 <primes>
    800001d8:	f99ff06f          	j	80000170 <bench_sieve_run+0xd8>

00000000800001dc <bench_sieve_validate>:
    800001dc:	00006797          	auipc	a5,0x6
    800001e0:	1a47b783          	ld	a5,420(a5) # 80006380 <setting>
    800001e4:	0187a503          	lw	a0,24(a5)
    800001e8:	00006797          	auipc	a5,0x6
    800001ec:	07c7a783          	lw	a5,124(a5) # 80006264 <ans>
    800001f0:	40f50533          	sub	a0,a0,a5
    800001f4:	00153513          	seqz	a0,a0
    800001f8:	00008067          	ret

00000000800001fc <bench_memcpy.part.0>:
    800001fc:	ff010113          	addi	sp,sp,-16
    80000200:	00800613          	li	a2,8
    80000204:	00005597          	auipc	a1,0x5
    80000208:	b6458593          	addi	a1,a1,-1180 # 80004d68 <_etext+0x4>
    8000020c:	00005517          	auipc	a0,0x5
    80000210:	bb450513          	addi	a0,a0,-1100 # 80004dc0 <_etext+0x5c>
    80000214:	00113423          	sd	ra,8(sp)
    80000218:	748040ef          	jal	ra,80004960 <printf>
    8000021c:	00100513          	li	a0,1
    80000220:	3d0040ef          	jal	ra,800045f0 <halt>

0000000080000224 <qlz_compress>:
    80000224:	00100793          	li	a5,1
    80000228:	f5010113          	addi	sp,sp,-176
    8000022c:	02079793          	slli	a5,a5,0x20
    80000230:	00060713          	mv	a4,a2
    80000234:	02c13023          	sd	a2,32(sp)
    80000238:	0a113423          	sd	ra,168(sp)
    8000023c:	0a813023          	sd	s0,160(sp)
    80000240:	08913c23          	sd	s1,152(sp)
    80000244:	09213823          	sd	s2,144(sp)
    80000248:	09313423          	sd	s3,136(sp)
    8000024c:	09413023          	sd	s4,128(sp)
    80000250:	07513c23          	sd	s5,120(sp)
    80000254:	07613823          	sd	s6,112(sp)
    80000258:	07713423          	sd	s7,104(sp)
    8000025c:	07813023          	sd	s8,96(sp)
    80000260:	05913c23          	sd	s9,88(sp)
    80000264:	05a13823          	sd	s10,80(sp)
    80000268:	05b13423          	sd	s11,72(sp)
    8000026c:	fff60613          	addi	a2,a2,-1
    80000270:	e6e78793          	addi	a5,a5,-402
    80000274:	00a13423          	sd	a0,8(sp)
    80000278:	02b13823          	sd	a1,48(sp)
    8000027c:	58c7e463          	bltu	a5,a2,80000804 <qlz_compress+0x5e0>
    80000280:	00300593          	li	a1,3
    80000284:	0d700793          	li	a5,215
    80000288:	02b13423          	sd	a1,40(sp)
    8000028c:	46e7e263          	bltu	a5,a4,800006f0 <qlz_compress+0x4cc>
    80000290:	000107b7          	lui	a5,0x10
    80000294:	00011737          	lui	a4,0x11
    80000298:	00878793          	addi	a5,a5,8 # 10008 <_entry_offset+0x10008>
    8000029c:	80870713          	addi	a4,a4,-2040 # 10808 <_entry_offset+0x10808>
    800002a0:	00f687b3          	add	a5,a3,a5
    800002a4:	00e68733          	add	a4,a3,a4
    800002a8:	00078023          	sb	zero,0(a5)
    800002ac:	00178793          	addi	a5,a5,1
    800002b0:	fef71ce3          	bne	a4,a5,800002a8 <qlz_compress+0x84>
    800002b4:	00813783          	ld	a5,8(sp)
    800002b8:	03013703          	ld	a4,48(sp)
    800002bc:	02813583          	ld	a1,40(sp)
    800002c0:	00c78633          	add	a2,a5,a2
    800002c4:	02c13c23          	sd	a2,56(sp)
    800002c8:	00b704b3          	add	s1,a4,a1
    800002cc:	00913823          	sd	s1,16(sp)
    800002d0:	ff660c13          	addi	s8,a2,-10
    800002d4:	00448e13          	addi	t3,s1,4
    800002d8:	00078713          	mv	a4,a5
    800002dc:	5cfc6663          	bltu	s8,a5,800008a8 <qlz_compress+0x684>
    800002e0:	02013783          	ld	a5,32(sp)
    800002e4:	ffc60d13          	addi	s10,a2,-4
    800002e8:	0fe00c93          	li	s9,254
    800002ec:	0017d793          	srli	a5,a5,0x1
    800002f0:	00f707b3          	add	a5,a4,a5
    800002f4:	00f13c23          	sd	a5,24(sp)
    800002f8:	00010bb7          	lui	s7,0x10
    800002fc:	00070793          	mv	a5,a4
    80000300:	00400993          	li	s3,4
    80000304:	80000737          	lui	a4,0x80000
    80000308:	80000db7          	lui	s11,0x80000
    8000030c:	40fd0fb3          	sub	t6,s10,a5
    80000310:	01fcd463          	bge	s9,t6,80000318 <qlz_compress+0xf4>
    80000314:	0fe00f93          	li	t6,254
    80000318:	0017c603          	lbu	a2,1(a5)
    8000031c:	0027c503          	lbu	a0,2(a5)
    80000320:	0007c583          	lbu	a1,0(a5)
    80000324:	0086161b          	slliw	a2,a2,0x8
    80000328:	0105151b          	slliw	a0,a0,0x10
    8000032c:	00a66633          	or	a2,a2,a0
    80000330:	00b66633          	or	a2,a2,a1
    80000334:	00d6559b          	srliw	a1,a2,0xd
    80000338:	0096581b          	srliw	a6,a2,0x9
    8000033c:	00b84833          	xor	a6,a6,a1
    80000340:	0006061b          	sext.w	a2,a2
    80000344:	00c84833          	xor	a6,a6,a2
    80000348:	7ff87313          	andi	t1,a6,2047
    8000034c:	00531893          	slli	a7,t1,0x5
    80000350:	011688b3          	add	a7,a3,a7
    80000354:	0088b583          	ld	a1,8(a7)
    80000358:	00668533          	add	a0,a3,t1
    8000035c:	00ab8533          	add	a0,s7,a0
    80000360:	ffe78a13          	addi	s4,a5,-2
    80000364:	00854283          	lbu	t0,8(a0)
    80000368:	001f8f93          	addi	t6,t6,1
    8000036c:	00030813          	mv	a6,t1
    80000370:	0945fe63          	bgeu	a1,s4,8000040c <qlz_compress+0x1e8>
    80000374:	2c029e63          	bnez	t0,80000650 <qlz_compress+0x42c>
    80000378:	00f8b423          	sd	a5,8(a7)
    8000037c:	00100613          	li	a2,1
    80000380:	00c50423          	sb	a2,8(a0)
    80000384:	0017571b          	srliw	a4,a4,0x1
    80000388:	0007c603          	lbu	a2,0(a5)
    8000038c:	001e0e13          	addi	t3,t3,1
    80000390:	00178793          	addi	a5,a5,1
    80000394:	fece0fa3          	sb	a2,-1(t3)
    80000398:	00177613          	andi	a2,a4,1
    8000039c:	00060593          	mv	a1,a2
    800003a0:	14fc6063          	bltu	s8,a5,800004e0 <qlz_compress+0x2bc>
    800003a4:	f60584e3          	beqz	a1,8000030c <qlz_compress+0xe8>
    800003a8:	01813603          	ld	a2,24(sp)
    800003ac:	02f67063          	bgeu	a2,a5,800003cc <qlz_compress+0x1a8>
    800003b0:	00813603          	ld	a2,8(sp)
    800003b4:	01013583          	ld	a1,16(sp)
    800003b8:	40c78633          	sub	a2,a5,a2
    800003bc:	40565513          	srai	a0,a2,0x5
    800003c0:	40be05b3          	sub	a1,t3,a1
    800003c4:	40a60633          	sub	a2,a2,a0
    800003c8:	44b64a63          	blt	a2,a1,8000081c <qlz_compress+0x5f8>
    800003cc:	0017571b          	srliw	a4,a4,0x1
    800003d0:	01b76733          	or	a4,a4,s11
    800003d4:	0007071b          	sext.w	a4,a4
    800003d8:	00875513          	srli	a0,a4,0x8
    800003dc:	01075593          	srli	a1,a4,0x10
    800003e0:	01875613          	srli	a2,a4,0x18
    800003e4:	00e48023          	sb	a4,0(s1)
    800003e8:	00a480a3          	sb	a0,1(s1)
    800003ec:	00b48123          	sb	a1,2(s1)
    800003f0:	00c481a3          	sb	a2,3(s1)
    800003f4:	40fd0fb3          	sub	t6,s10,a5
    800003f8:	000e0493          	mv	s1,t3
    800003fc:	80000737          	lui	a4,0x80000
    80000400:	004e0e13          	addi	t3,t3,4
    80000404:	f1fcdae3          	bge	s9,t6,80000318 <qlz_compress+0xf4>
    80000408:	f0dff06f          	j	80000314 <qlz_compress+0xf0>
    8000040c:	00000e93          	li	t4,0
    80000410:	00531593          	slli	a1,t1,0x5
    80000414:	0002891b          	sext.w	s2,t0
    80000418:	00b685b3          	add	a1,a3,a1
    8000041c:	00000f13          	li	t5,0
    80000420:	00100513          	li	a0,1
    80000424:	03257863          	bgeu	a0,s2,80000454 <qlz_compress+0x230>
    80000428:	0105b883          	ld	a7,16(a1)
    8000042c:	020e9393          	slli	t2,t4,0x20
    80000430:	0203d393          	srli	t2,t2,0x20
    80000434:	00778433          	add	s0,a5,t2
    80000438:	007883b3          	add	t2,a7,t2
    8000043c:	00044403          	lbu	s0,0(s0)
    80000440:	0003c383          	lbu	t2,0(t2)
    80000444:	18740c63          	beq	s0,t2,800005dc <qlz_compress+0x3b8>
    80000448:	0015051b          	addiw	a0,a0,1
    8000044c:	00858593          	addi	a1,a1,8
    80000450:	fd351ae3          	bne	a0,s3,80000424 <qlz_compress+0x200>
    80000454:	0032f593          	andi	a1,t0,3
    80000458:	00231613          	slli	a2,t1,0x2
    8000045c:	00b60633          	add	a2,a2,a1
    80000460:	00361613          	slli	a2,a2,0x3
    80000464:	00c68633          	add	a2,a3,a2
    80000468:	00668333          	add	t1,a3,t1
    8000046c:	00f63423          	sd	a5,8(a2)
    80000470:	006b8333          	add	t1,s7,t1
    80000474:	0012829b          	addiw	t0,t0,1
    80000478:	0017561b          	srliw	a2,a4,0x1
    8000047c:	00530423          	sb	t0,8(t1)
    80000480:	00200593          	li	a1,2
    80000484:	0006071b          	sext.w	a4,a2
    80000488:	f1d5f0e3          	bgeu	a1,t4,80000388 <qlz_compress+0x164>
    8000048c:	01b66733          	or	a4,a2,s11
    80000490:	020e9613          	slli	a2,t4,0x20
    80000494:	02065613          	srli	a2,a2,0x20
    80000498:	0058181b          	slliw	a6,a6,0x5
    8000049c:	010f6f33          	or	t5,t5,a6
    800004a0:	00c787b3          	add	a5,a5,a2
    800004a4:	00900613          	li	a2,9
    800004a8:	0007071b          	sext.w	a4,a4
    800004ac:	000f0f1b          	sext.w	t5,t5
    800004b0:	21d66c63          	bltu	a2,t4,800006c8 <qlz_compress+0x4a4>
    800004b4:	ffee8e9b          	addiw	t4,t4,-2
    800004b8:	002e9e9b          	slliw	t4,t4,0x2
    800004bc:	01df6f33          	or	t5,t5,t4
    800004c0:	000f0f1b          	sext.w	t5,t5
    800004c4:	008f5613          	srli	a2,t5,0x8
    800004c8:	00ce00a3          	sb	a2,1(t3)
    800004cc:	01ee0023          	sb	t5,0(t3)
    800004d0:	00177613          	andi	a2,a4,1
    800004d4:	002e0e13          	addi	t3,t3,2
    800004d8:	00060593          	mv	a1,a2
    800004dc:	ecfc74e3          	bgeu	s8,a5,800003a4 <qlz_compress+0x180>
    800004e0:	03813883          	ld	a7,56(sp)
    800004e4:	0017551b          	srliw	a0,a4,0x1
    800004e8:	0017581b          	srliw	a6,a4,0x1
    800004ec:	20f8e863          	bltu	a7,a5,800006fc <qlz_compress+0x4d8>
    800004f0:	03813583          	ld	a1,56(sp)
    800004f4:	02013803          	ld	a6,32(sp)
    800004f8:	80000f37          	lui	t5,0x80000
    800004fc:	ffd58313          	addi	t1,a1,-3
    80000500:	00813583          	ld	a1,8(sp)
    80000504:	00010eb7          	lui	t4,0x10
    80000508:	010588b3          	add	a7,a1,a6
    8000050c:	08c0006f          	j	80000598 <qlz_compress+0x374>
    80000510:	0027581b          	srliw	a6,a4,0x2
    80000514:	00157593          	andi	a1,a0,1
    80000518:	000f8713          	mv	a4,t6
    8000051c:	0007cf83          	lbu	t6,0(a5)
    80000520:	06f36063          	bltu	t1,a5,80000580 <qlz_compress+0x35c>
    80000524:	0017c503          	lbu	a0,1(a5)
    80000528:	0027c603          	lbu	a2,2(a5)
    8000052c:	0085151b          	slliw	a0,a0,0x8
    80000530:	0106161b          	slliw	a2,a2,0x10
    80000534:	00c56533          	or	a0,a0,a2
    80000538:	00d5529b          	srliw	t0,a0,0xd
    8000053c:	0095561b          	srliw	a2,a0,0x9
    80000540:	00564633          	xor	a2,a2,t0
    80000544:	01f56533          	or	a0,a0,t6
    80000548:	00a64633          	xor	a2,a2,a0
    8000054c:	7ff67613          	andi	a2,a2,2047
    80000550:	00c68533          	add	a0,a3,a2
    80000554:	00ae8533          	add	a0,t4,a0
    80000558:	00854f83          	lbu	t6,8(a0)
    8000055c:	00261613          	slli	a2,a2,0x2
    80000560:	003ff293          	andi	t0,t6,3
    80000564:	00560633          	add	a2,a2,t0
    80000568:	00361613          	slli	a2,a2,0x3
    8000056c:	00c68633          	add	a2,a3,a2
    80000570:	00f63423          	sd	a5,8(a2)
    80000574:	001f8f9b          	addiw	t6,t6,1
    80000578:	01f50423          	sb	t6,8(a0)
    8000057c:	0007cf83          	lbu	t6,0(a5)
    80000580:	01fe0023          	sb	t6,0(t3)
    80000584:	00178793          	addi	a5,a5,1
    80000588:	001e0e13          	addi	t3,t3,1
    8000058c:	17178863          	beq	a5,a7,800006fc <qlz_compress+0x4d8>
    80000590:	0017551b          	srliw	a0,a4,0x1
    80000594:	00177613          	andi	a2,a4,1
    80000598:	00050f9b          	sext.w	t6,a0
    8000059c:	f6060ae3          	beqz	a2,80000510 <qlz_compress+0x2ec>
    800005a0:	01e56533          	or	a0,a0,t5
    800005a4:	0005051b          	sext.w	a0,a0
    800005a8:	00855593          	srli	a1,a0,0x8
    800005ac:	01855713          	srli	a4,a0,0x18
    800005b0:	01055613          	srli	a2,a0,0x10
    800005b4:	00b480a3          	sb	a1,1(s1)
    800005b8:	00e481a3          	sb	a4,3(s1)
    800005bc:	00a48023          	sb	a0,0(s1)
    800005c0:	00c48123          	sb	a2,2(s1)
    800005c4:	20000837          	lui	a6,0x20000
    800005c8:	000e0493          	mv	s1,t3
    800005cc:	00000593          	li	a1,0
    800005d0:	004e0e13          	addi	t3,t3,4
    800005d4:	40000737          	lui	a4,0x40000
    800005d8:	f45ff06f          	j	8000051c <qlz_compress+0x2f8>
    800005dc:	0018c383          	lbu	t2,1(a7)
    800005e0:	0028c403          	lbu	s0,2(a7)
    800005e4:	0008ca83          	lbu	s5,0(a7)
    800005e8:	0083939b          	slliw	t2,t2,0x8
    800005ec:	0104141b          	slliw	s0,s0,0x10
    800005f0:	0083e3b3          	or	t2,t2,s0
    800005f4:	0153e3b3          	or	t2,t2,s5
    800005f8:	0003839b          	sext.w	t2,t2
    800005fc:	e4c396e3          	bne	t2,a2,80000448 <qlz_compress+0x224>
    80000600:	e548f4e3          	bgeu	a7,s4,80000448 <qlz_compress+0x224>
    80000604:	0038c403          	lbu	s0,3(a7)
    80000608:	0037c383          	lbu	t2,3(a5)
    8000060c:	28741a63          	bne	s0,t2,800008a0 <qlz_compress+0x67c>
    80000610:	00300393          	li	t2,3
    80000614:	01f3e663          	bltu	t2,t6,80000620 <qlz_compress+0x3fc>
    80000618:	2880006f          	j	800008a0 <qlz_compress+0x67c>
    8000061c:	03f47263          	bgeu	s0,t6,80000640 <qlz_compress+0x41c>
    80000620:	0013839b          	addiw	t2,t2,1
    80000624:	02039413          	slli	s0,t2,0x20
    80000628:	02045413          	srli	s0,s0,0x20
    8000062c:	00888b33          	add	s6,a7,s0
    80000630:	00878ab3          	add	s5,a5,s0
    80000634:	000b4b03          	lbu	s6,0(s6)
    80000638:	000aca83          	lbu	s5,0(s5)
    8000063c:	ff5b00e3          	beq	s6,s5,8000061c <qlz_compress+0x3f8>
    80000640:	e07ef4e3          	bgeu	t4,t2,80000448 <qlz_compress+0x224>
    80000644:	00050f13          	mv	t5,a0
    80000648:	00038e93          	mv	t4,t2
    8000064c:	dfdff06f          	j	80000448 <qlz_compress+0x224>
    80000650:	0015c503          	lbu	a0,1(a1)
    80000654:	0025c883          	lbu	a7,2(a1)
    80000658:	0005ce83          	lbu	t4,0(a1)
    8000065c:	0085151b          	slliw	a0,a0,0x8
    80000660:	0108989b          	slliw	a7,a7,0x10
    80000664:	01156533          	or	a0,a0,a7
    80000668:	01d56533          	or	a0,a0,t4
    8000066c:	0005051b          	sext.w	a0,a0
    80000670:	00000e93          	li	t4,0
    80000674:	d8c51ee3          	bne	a0,a2,80000410 <qlz_compress+0x1ec>
    80000678:	0035c883          	lbu	a7,3(a1)
    8000067c:	0037c503          	lbu	a0,3(a5)
    80000680:	00300e93          	li	t4,3
    80000684:	d8a896e3          	bne	a7,a0,80000410 <qlz_compress+0x1ec>
    80000688:	0045c883          	lbu	a7,4(a1)
    8000068c:	0047c503          	lbu	a0,4(a5)
    80000690:	00400e93          	li	t4,4
    80000694:	d6a89ee3          	bne	a7,a0,80000410 <qlz_compress+0x1ec>
    80000698:	01f9e663          	bltu	s3,t6,800006a4 <qlz_compress+0x480>
    8000069c:	d75ff06f          	j	80000410 <qlz_compress+0x1ec>
    800006a0:	d7f578e3          	bgeu	a0,t6,80000410 <qlz_compress+0x1ec>
    800006a4:	001e8e9b          	addiw	t4,t4,1
    800006a8:	020e9513          	slli	a0,t4,0x20
    800006ac:	02055513          	srli	a0,a0,0x20
    800006b0:	00a588b3          	add	a7,a1,a0
    800006b4:	00a78f33          	add	t5,a5,a0
    800006b8:	0008c883          	lbu	a7,0(a7)
    800006bc:	000f4f03          	lbu	t5,0(t5) # ffffffff80000000 <_end+0xfffffffeffff1000>
    800006c0:	ffe880e3          	beq	a7,t5,800006a0 <qlz_compress+0x47c>
    800006c4:	d4dff06f          	j	80000410 <qlz_compress+0x1ec>
    800006c8:	010e9e9b          	slliw	t4,t4,0x10
    800006cc:	01df6eb3          	or	t4,t5,t4
    800006d0:	000e8e9b          	sext.w	t4,t4
    800006d4:	008ed593          	srli	a1,t4,0x8
    800006d8:	010ed613          	srli	a2,t4,0x10
    800006dc:	01de0023          	sb	t4,0(t3)
    800006e0:	00be00a3          	sb	a1,1(t3)
    800006e4:	00ce0123          	sb	a2,2(t3)
    800006e8:	003e0e13          	addi	t3,t3,3
    800006ec:	cadff06f          	j	80000398 <qlz_compress+0x174>
    800006f0:	00900793          	li	a5,9
    800006f4:	02f13423          	sd	a5,40(sp)
    800006f8:	b99ff06f          	j	80000290 <qlz_compress+0x6c>
    800006fc:	00059e63          	bnez	a1,80000718 <qlz_compress+0x4f4>
    80000700:	0017579b          	srliw	a5,a4,0x1
    80000704:	0017f613          	andi	a2,a5,1
    80000708:	0007081b          	sext.w	a6,a4
    8000070c:	0007871b          	sext.w	a4,a5
    80000710:	fe0608e3          	beqz	a2,80000700 <qlz_compress+0x4dc>
    80000714:	0028581b          	srliw	a6,a6,0x2
    80000718:	800007b7          	lui	a5,0x80000
    8000071c:	00f86833          	or	a6,a6,a5
    80000720:	01885793          	srli	a5,a6,0x18
    80000724:	00f481a3          	sb	a5,3(s1)
    80000728:	01013783          	ld	a5,16(sp)
    8000072c:	00885613          	srli	a2,a6,0x8
    80000730:	01085713          	srli	a4,a6,0x10
    80000734:	40fe0533          	sub	a0,t3,a5
    80000738:	01048023          	sb	a6,0(s1)
    8000073c:	00c480a3          	sb	a2,1(s1)
    80000740:	00e48123          	sb	a4,2(s1)
    80000744:	00900793          	li	a5,9
    80000748:	00f55463          	bge	a0,a5,80000750 <qlz_compress+0x52c>
    8000074c:	00900513          	li	a0,9
    80000750:	02813783          	ld	a5,40(sp)
    80000754:	00f50533          	add	a0,a0,a5
    80000758:	00100793          	li	a5,1
    8000075c:	0006b023          	sd	zero,0(a3)
    80000760:	02813683          	ld	a3,40(sp)
    80000764:	00300713          	li	a4,3
    80000768:	02014603          	lbu	a2,32(sp)
    8000076c:	0ff57593          	andi	a1,a0,255
    80000770:	08e68e63          	beq	a3,a4,8000080c <qlz_compress+0x5e8>
    80000774:	02012683          	lw	a3,32(sp)
    80000778:	03013e83          	ld	t4,48(sp)
    8000077c:	0005071b          	sext.w	a4,a0
    80000780:	00875e13          	srli	t3,a4,0x8
    80000784:	01075313          	srli	t1,a4,0x10
    80000788:	0086d893          	srli	a7,a3,0x8
    8000078c:	0106d813          	srli	a6,a3,0x10
    80000790:	01875713          	srli	a4,a4,0x18
    80000794:	0186d693          	srli	a3,a3,0x18
    80000798:	0027e793          	ori	a5,a5,2
    8000079c:	00be80a3          	sb	a1,1(t4) # 10001 <_entry_offset+0x10001>
    800007a0:	01ce8123          	sb	t3,2(t4)
    800007a4:	006e81a3          	sb	t1,3(t4)
    800007a8:	00ee8223          	sb	a4,4(t4)
    800007ac:	00ce82a3          	sb	a2,5(t4)
    800007b0:	011e8323          	sb	a7,6(t4)
    800007b4:	010e83a3          	sb	a6,7(t4)
    800007b8:	00de8423          	sb	a3,8(t4)
    800007bc:	03013703          	ld	a4,48(sp)
    800007c0:	0487e793          	ori	a5,a5,72
    800007c4:	00f70023          	sb	a5,0(a4) # 40000000 <_entry_offset+0x40000000>
    800007c8:	0a813083          	ld	ra,168(sp)
    800007cc:	0a013403          	ld	s0,160(sp)
    800007d0:	09813483          	ld	s1,152(sp)
    800007d4:	09013903          	ld	s2,144(sp)
    800007d8:	08813983          	ld	s3,136(sp)
    800007dc:	08013a03          	ld	s4,128(sp)
    800007e0:	07813a83          	ld	s5,120(sp)
    800007e4:	07013b03          	ld	s6,112(sp)
    800007e8:	06813b83          	ld	s7,104(sp)
    800007ec:	06013c03          	ld	s8,96(sp)
    800007f0:	05813c83          	ld	s9,88(sp)
    800007f4:	05013d03          	ld	s10,80(sp)
    800007f8:	04813d83          	ld	s11,72(sp)
    800007fc:	0b010113          	addi	sp,sp,176
    80000800:	00008067          	ret
    80000804:	00000513          	li	a0,0
    80000808:	fc1ff06f          	j	800007c8 <qlz_compress+0x5a4>
    8000080c:	03013703          	ld	a4,48(sp)
    80000810:	00b700a3          	sb	a1,1(a4)
    80000814:	00c70123          	sb	a2,2(a4)
    80000818:	fa5ff06f          	j	800007bc <qlz_compress+0x598>
    8000081c:	00813783          	ld	a5,8(sp)
    80000820:	0a078c63          	beqz	a5,800008d8 <qlz_compress+0x6b4>
    80000824:	00813603          	ld	a2,8(sp)
    80000828:	02013583          	ld	a1,32(sp)
    8000082c:	01013703          	ld	a4,16(sp)
    80000830:	00b607b3          	add	a5,a2,a1
    80000834:	02f77c63          	bgeu	a4,a5,8000086c <qlz_compress+0x648>
    80000838:	02e67a63          	bgeu	a2,a4,8000086c <qlz_compress+0x648>
    8000083c:	00b70733          	add	a4,a4,a1
    80000840:	fff7c603          	lbu	a2,-1(a5) # ffffffff7fffffff <_end+0xfffffffeffff0fff>
    80000844:	fff78793          	addi	a5,a5,-1
    80000848:	fff70713          	addi	a4,a4,-1
    8000084c:	00c70023          	sb	a2,0(a4)
    80000850:	00813603          	ld	a2,8(sp)
    80000854:	fef616e3          	bne	a2,a5,80000840 <qlz_compress+0x61c>
    80000858:	02813783          	ld	a5,40(sp)
    8000085c:	02013703          	ld	a4,32(sp)
    80000860:	00e78533          	add	a0,a5,a4
    80000864:	00000793          	li	a5,0
    80000868:	ef5ff06f          	j	8000075c <qlz_compress+0x538>
    8000086c:	01013783          	ld	a5,16(sp)
    80000870:	02013703          	ld	a4,32(sp)
    80000874:	00e78733          	add	a4,a5,a4
    80000878:	00813583          	ld	a1,8(sp)
    8000087c:	01013603          	ld	a2,16(sp)
    80000880:	0005c783          	lbu	a5,0(a1)
    80000884:	00160613          	addi	a2,a2,1
    80000888:	00158593          	addi	a1,a1,1
    8000088c:	00c13823          	sd	a2,16(sp)
    80000890:	00b13423          	sd	a1,8(sp)
    80000894:	fef60fa3          	sb	a5,-1(a2)
    80000898:	fec710e3          	bne	a4,a2,80000878 <qlz_compress+0x654>
    8000089c:	fbdff06f          	j	80000858 <qlz_compress+0x634>
    800008a0:	00300393          	li	t2,3
    800008a4:	d9dff06f          	j	80000640 <qlz_compress+0x41c>
    800008a8:	00813783          	ld	a5,8(sp)
    800008ac:	03813703          	ld	a4,56(sp)
    800008b0:	00f76e63          	bltu	a4,a5,800008cc <qlz_compress+0x6a8>
    800008b4:	00813783          	ld	a5,8(sp)
    800008b8:	01013483          	ld	s1,16(sp)
    800008bc:	80000737          	lui	a4,0x80000
    800008c0:	40000537          	lui	a0,0x40000
    800008c4:	00000613          	li	a2,0
    800008c8:	c29ff06f          	j	800004f0 <qlz_compress+0x2cc>
    800008cc:	01013483          	ld	s1,16(sp)
    800008d0:	80000737          	lui	a4,0x80000
    800008d4:	e2dff06f          	j	80000700 <qlz_compress+0x4dc>
    800008d8:	925ff0ef          	jal	ra,800001fc <bench_memcpy.part.0>

00000000800008dc <bench_lzip_prepare>:
    800008dc:	00006797          	auipc	a5,0x6
    800008e0:	aa47b783          	ld	a5,-1372(a5) # 80006380 <setting>
    800008e4:	0007a783          	lw	a5,0(a5)
    800008e8:	fd010113          	addi	sp,sp,-48
    800008ec:	00913c23          	sd	s1,24(sp)
    800008f0:	00100513          	li	a0,1
    800008f4:	00006497          	auipc	s1,0x6
    800008f8:	97c48493          	addi	s1,s1,-1668 # 80006270 <SIZE>
    800008fc:	02113423          	sd	ra,40(sp)
    80000900:	00f4a023          	sw	a5,0(s1)
    80000904:	01213823          	sd	s2,16(sp)
    80000908:	02813023          	sd	s0,32(sp)
    8000090c:	01313423          	sd	s3,8(sp)
    80000910:	7e8010ef          	jal	ra,800020f8 <bench_srand>
    80000914:	00011537          	lui	a0,0x11
    80000918:	80850513          	addi	a0,a0,-2040 # 10808 <_entry_offset+0x10808>
    8000091c:	740010ef          	jal	ra,8000205c <bench_alloc>
    80000920:	00050793          	mv	a5,a0
    80000924:	0004a503          	lw	a0,0(s1)
    80000928:	00006717          	auipc	a4,0x6
    8000092c:	96f73423          	sd	a5,-1688(a4) # 80006290 <state>
    80000930:	00006917          	auipc	s2,0x6
    80000934:	94890913          	addi	s2,s2,-1720 # 80006278 <blk>
    80000938:	724010ef          	jal	ra,8000205c <bench_alloc>
    8000093c:	0004a783          	lw	a5,0(s1)
    80000940:	00a93023          	sd	a0,0(s2)
    80000944:	1907851b          	addiw	a0,a5,400
    80000948:	714010ef          	jal	ra,8000205c <bench_alloc>
    8000094c:	0004a783          	lw	a5,0(s1)
    80000950:	00006717          	auipc	a4,0x6
    80000954:	92a73823          	sd	a0,-1744(a4) # 80006280 <compress>
    80000958:	02f05a63          	blez	a5,8000098c <bench_lzip_prepare+0xb0>
    8000095c:	00000413          	li	s0,0
    80000960:	01a00993          	li	s3,26
    80000964:	7a8010ef          	jal	ra,8000210c <bench_rand>
    80000968:	0335753b          	remuw	a0,a0,s3
    8000096c:	00093783          	ld	a5,0(s2)
    80000970:	0004a683          	lw	a3,0(s1)
    80000974:	008787b3          	add	a5,a5,s0
    80000978:	00140413          	addi	s0,s0,1
    8000097c:	0004071b          	sext.w	a4,s0
    80000980:	0615051b          	addiw	a0,a0,97
    80000984:	00a78023          	sb	a0,0(a5)
    80000988:	fcd74ee3          	blt	a4,a3,80000964 <bench_lzip_prepare+0x88>
    8000098c:	02813083          	ld	ra,40(sp)
    80000990:	02013403          	ld	s0,32(sp)
    80000994:	01813483          	ld	s1,24(sp)
    80000998:	01013903          	ld	s2,16(sp)
    8000099c:	00813983          	ld	s3,8(sp)
    800009a0:	03010113          	addi	sp,sp,48
    800009a4:	00008067          	ret

00000000800009a8 <bench_lzip_run>:
    800009a8:	ff010113          	addi	sp,sp,-16
    800009ac:	00006697          	auipc	a3,0x6
    800009b0:	8e46b683          	ld	a3,-1820(a3) # 80006290 <state>
    800009b4:	00006617          	auipc	a2,0x6
    800009b8:	8bc62603          	lw	a2,-1860(a2) # 80006270 <SIZE>
    800009bc:	00006597          	auipc	a1,0x6
    800009c0:	8c45b583          	ld	a1,-1852(a1) # 80006280 <compress>
    800009c4:	00006517          	auipc	a0,0x6
    800009c8:	8b453503          	ld	a0,-1868(a0) # 80006278 <blk>
    800009cc:	00113423          	sd	ra,8(sp)
    800009d0:	855ff0ef          	jal	ra,80000224 <qlz_compress>
    800009d4:	00813083          	ld	ra,8(sp)
    800009d8:	00006797          	auipc	a5,0x6
    800009dc:	8aa7a823          	sw	a0,-1872(a5) # 80006288 <len>
    800009e0:	01010113          	addi	sp,sp,16
    800009e4:	00008067          	ret

00000000800009e8 <bench_lzip_validate>:
    800009e8:	00006517          	auipc	a0,0x6
    800009ec:	89853503          	ld	a0,-1896(a0) # 80006280 <compress>
    800009f0:	00006597          	auipc	a1,0x6
    800009f4:	8985a583          	lw	a1,-1896(a1) # 80006288 <len>
    800009f8:	ff010113          	addi	sp,sp,-16
    800009fc:	00b505b3          	add	a1,a0,a1
    80000a00:	00113423          	sd	ra,8(sp)
    80000a04:	73c010ef          	jal	ra,80002140 <checksum>
    80000a08:	00006797          	auipc	a5,0x6
    80000a0c:	9787b783          	ld	a5,-1672(a5) # 80006380 <setting>
    80000a10:	0187a783          	lw	a5,24(a5)
    80000a14:	00813083          	ld	ra,8(sp)
    80000a18:	0005051b          	sext.w	a0,a0
    80000a1c:	40a78533          	sub	a0,a5,a0
    80000a20:	00153513          	seqz	a0,a0
    80000a24:	01010113          	addi	sp,sp,16
    80000a28:	00008067          	ret

0000000080000a2c <bench_md5_prepare>:
    80000a2c:	00006797          	auipc	a5,0x6
    80000a30:	9547b783          	ld	a5,-1708(a5) # 80006380 <setting>
    80000a34:	0007a783          	lw	a5,0(a5)
    80000a38:	fe010113          	addi	sp,sp,-32
    80000a3c:	00913423          	sd	s1,8(sp)
    80000a40:	00100513          	li	a0,1
    80000a44:	00006497          	auipc	s1,0x6
    80000a48:	85448493          	addi	s1,s1,-1964 # 80006298 <N>
    80000a4c:	00f4a023          	sw	a5,0(s1)
    80000a50:	00113c23          	sd	ra,24(sp)
    80000a54:	01213023          	sd	s2,0(sp)
    80000a58:	00813823          	sd	s0,16(sp)
    80000a5c:	69c010ef          	jal	ra,800020f8 <bench_srand>
    80000a60:	0004a503          	lw	a0,0(s1)
    80000a64:	00006917          	auipc	s2,0x6
    80000a68:	84490913          	addi	s2,s2,-1980 # 800062a8 <str>
    80000a6c:	5f0010ef          	jal	ra,8000205c <bench_alloc>
    80000a70:	0004a783          	lw	a5,0(s1)
    80000a74:	00a93023          	sd	a0,0(s2)
    80000a78:	02f05463          	blez	a5,80000aa0 <bench_md5_prepare+0x74>
    80000a7c:	00000413          	li	s0,0
    80000a80:	68c010ef          	jal	ra,8000210c <bench_rand>
    80000a84:	00093783          	ld	a5,0(s2)
    80000a88:	0004a703          	lw	a4,0(s1)
    80000a8c:	008787b3          	add	a5,a5,s0
    80000a90:	00140413          	addi	s0,s0,1
    80000a94:	00a78023          	sb	a0,0(a5)
    80000a98:	0004079b          	sext.w	a5,s0
    80000a9c:	fee7c2e3          	blt	a5,a4,80000a80 <bench_md5_prepare+0x54>
    80000aa0:	01000513          	li	a0,16
    80000aa4:	5b8010ef          	jal	ra,8000205c <bench_alloc>
    80000aa8:	01813083          	ld	ra,24(sp)
    80000aac:	01013403          	ld	s0,16(sp)
    80000ab0:	00005797          	auipc	a5,0x5
    80000ab4:	7ea7b823          	sd	a0,2032(a5) # 800062a0 <digest>
    80000ab8:	00813483          	ld	s1,8(sp)
    80000abc:	00013903          	ld	s2,0(sp)
    80000ac0:	02010113          	addi	sp,sp,32
    80000ac4:	00008067          	ret

0000000080000ac8 <bench_md5_run>:
    80000ac8:	00005697          	auipc	a3,0x5
    80000acc:	7d06a683          	lw	a3,2000(a3) # 80006298 <N>
    80000ad0:	f6010113          	addi	sp,sp,-160
    80000ad4:	00168793          	addi	a5,a3,1
    80000ad8:	00005f97          	auipc	t6,0x5
    80000adc:	7d0fbf83          	ld	t6,2000(t6) # 800062a8 <str>
    80000ae0:	08813c23          	sd	s0,152(sp)
    80000ae4:	08913823          	sd	s1,144(sp)
    80000ae8:	09213423          	sd	s2,136(sp)
    80000aec:	09313023          	sd	s3,128(sp)
    80000af0:	07413c23          	sd	s4,120(sp)
    80000af4:	07513823          	sd	s5,112(sp)
    80000af8:	07613423          	sd	s6,104(sp)
    80000afc:	07713023          	sd	s7,96(sp)
    80000b00:	05813c23          	sd	s8,88(sp)
    80000b04:	05913823          	sd	s9,80(sp)
    80000b08:	05a13423          	sd	s10,72(sp)
    80000b0c:	05b13023          	sd	s11,64(sp)
    80000b10:	03f7f513          	andi	a0,a5,63
    80000b14:	03800593          	li	a1,56
    80000b18:	00005717          	auipc	a4,0x5
    80000b1c:	78873703          	ld	a4,1928(a4) # 800062a0 <digest>
    80000b20:	00df8633          	add	a2,t6,a3
    80000b24:	00078f13          	mv	t5,a5
    80000b28:	2eb50863          	beq	a0,a1,80000e18 <bench_md5_run+0x350>
    80000b2c:	03800513          	li	a0,56
    80000b30:	001f0f13          	addi	t5,t5,1
    80000b34:	03ff7593          	andi	a1,t5,63
    80000b38:	fea59ce3          	bne	a1,a0,80000b30 <bench_md5_run+0x68>
    80000b3c:	f8000593          	li	a1,-128
    80000b40:	00b60023          	sb	a1,0(a2)
    80000b44:	2de7fe63          	bgeu	a5,t5,80000e20 <bench_md5_run+0x358>
    80000b48:	00ff87b3          	add	a5,t6,a5
    80000b4c:	01ef8633          	add	a2,t6,t5
    80000b50:	00078023          	sb	zero,0(a5)
    80000b54:	00178793          	addi	a5,a5,1
    80000b58:	fef61ce3          	bne	a2,a5,80000b50 <bench_md5_run+0x88>
    80000b5c:	0036951b          	slliw	a0,a3,0x3
    80000b60:	41d6d593          	srai	a1,a3,0x1d
    80000b64:	0185581b          	srliw	a6,a0,0x18
    80000b68:	0085531b          	srliw	t1,a0,0x8
    80000b6c:	0105589b          	srliw	a7,a0,0x10
    80000b70:	004f0793          	addi	a5,t5,4
    80000b74:	00a60023          	sb	a0,0(a2)
    80000b78:	010601a3          	sb	a6,3(a2)
    80000b7c:	006600a3          	sb	t1,1(a2)
    80000b80:	01160123          	sb	a7,2(a2)
    80000b84:	00ff87b3          	add	a5,t6,a5
    80000b88:	0085d51b          	srliw	a0,a1,0x8
    80000b8c:	0105d61b          	srliw	a2,a1,0x10
    80000b90:	0185d59b          	srliw	a1,a1,0x18
    80000b94:	01d6d693          	srli	a3,a3,0x1d
    80000b98:	00a780a3          	sb	a0,1(a5)
    80000b9c:	00c78123          	sb	a2,2(a5)
    80000ba0:	00b781a3          	sb	a1,3(a5)
    80000ba4:	10325637          	lui	a2,0x10325
    80000ba8:	98bae5b7          	lui	a1,0x98bae
    80000bac:	efcdb537          	lui	a0,0xefcdb
    80000bb0:	67452837          	lui	a6,0x67452
    80000bb4:	d76aa3b7          	lui	t2,0xd76aa
    80000bb8:	00d78023          	sb	a3,0(a5)
    80000bbc:	47660613          	addi	a2,a2,1142 # 10325476 <_entry_offset+0x10325476>
    80000bc0:	cfe58593          	addi	a1,a1,-770 # ffffffff98badcfe <_end+0xffffffff18b9ecfe>
    80000bc4:	b8950513          	addi	a0,a0,-1143 # ffffffffefcdab89 <_end+0xffffffff6fccbb89>
    80000bc8:	30180813          	addi	a6,a6,769 # 67452301 <_entry_offset+0x67452301>
    80000bcc:	00000293          	li	t0,0
    80000bd0:	47838393          	addi	t2,t2,1144 # ffffffffd76aa478 <_end+0xffffffff5769b478>
    80000bd4:	00f00c13          	li	s8,15
    80000bd8:	01f00b93          	li	s7,31
    80000bdc:	02f00b13          	li	s6,47
    80000be0:	03f00a93          	li	s5,63
    80000be4:	005f87b3          	add	a5,t6,t0
    80000be8:	00010e13          	mv	t3,sp
    80000bec:	0017c303          	lbu	t1,1(a5)
    80000bf0:	0007ce83          	lbu	t4,0(a5)
    80000bf4:	0027c883          	lbu	a7,2(a5)
    80000bf8:	0037c683          	lbu	a3,3(a5)
    80000bfc:	00831313          	slli	t1,t1,0x8
    80000c00:	01d36333          	or	t1,t1,t4
    80000c04:	01089893          	slli	a7,a7,0x10
    80000c08:	0068e8b3          	or	a7,a7,t1
    80000c0c:	01869693          	slli	a3,a3,0x18
    80000c10:	0116e6b3          	or	a3,a3,a7
    80000c14:	00de2023          	sw	a3,0(t3)
    80000c18:	004e0e13          	addi	t3,t3,4
    80000c1c:	04010693          	addi	a3,sp,64
    80000c20:	00478793          	addi	a5,a5,4
    80000c24:	fdc694e3          	bne	a3,t3,80000bec <bench_md5_run+0x124>
    80000c28:	00080793          	mv	a5,a6
    80000c2c:	00038d13          	mv	s10,t2
    80000c30:	00000e93          	li	t4,0
    80000c34:	00004a17          	auipc	s4,0x4
    80000c38:	1b0a0a13          	addi	s4,s4,432 # 80004de4 <k+0x4>
    80000c3c:	00004997          	auipc	s3,0x4
    80000c40:	2a898993          	addi	s3,s3,680 # 80004ee4 <r+0x4>
    80000c44:	00050893          	mv	a7,a0
    80000c48:	00060e13          	mv	t3,a2
    80000c4c:	00058313          	mv	t1,a1
    80000c50:	00100913          	li	s2,1
    80000c54:	00500493          	li	s1,5
    80000c58:	00000413          	li	s0,0
    80000c5c:	00700c93          	li	s9,7
    80000c60:	01a78d3b          	addw	s10,a5,s10
    80000c64:	09dc7263          	bgeu	s8,t4,80000ce8 <bench_md5_run+0x220>
    80000c68:	011347b3          	xor	a5,t1,a7
    80000c6c:	01c7f7b3          	and	a5,a5,t3
    80000c70:	00f347b3          	xor	a5,t1,a5
    80000c74:	09dbe663          	bltu	s7,t4,80000d00 <bench_md5_run+0x238>
    80000c78:	0007879b          	sext.w	a5,a5
    80000c7c:	00f97693          	andi	a3,s2,15
    80000c80:	02069693          	slli	a3,a3,0x20
    80000c84:	01e6d693          	srli	a3,a3,0x1e
    80000c88:	04010d93          	addi	s11,sp,64
    80000c8c:	00dd86b3          	add	a3,s11,a3
    80000c90:	fc06a683          	lw	a3,-64(a3)
    80000c94:	01a787bb          	addw	a5,a5,s10
    80000c98:	41900d3b          	negw	s10,s9
    80000c9c:	00d787bb          	addw	a5,a5,a3
    80000ca0:	019796bb          	sllw	a3,a5,s9
    80000ca4:	01a7d7bb          	srlw	a5,a5,s10
    80000ca8:	00f6e6b3          	or	a3,a3,a5
    80000cac:	011686bb          	addw	a3,a3,a7
    80000cb0:	000a2d03          	lw	s10,0(s4)
    80000cb4:	000e0793          	mv	a5,t3
    80000cb8:	001e8e9b          	addiw	t4,t4,1
    80000cbc:	0009ac83          	lw	s9,0(s3)
    80000cc0:	00030e13          	mv	t3,t1
    80000cc4:	004a0a13          	addi	s4,s4,4
    80000cc8:	00088313          	mv	t1,a7
    80000ccc:	00498993          	addi	s3,s3,4
    80000cd0:	0074041b          	addiw	s0,s0,7
    80000cd4:	0034849b          	addiw	s1,s1,3
    80000cd8:	0059091b          	addiw	s2,s2,5
    80000cdc:	00068893          	mv	a7,a3
    80000ce0:	01a78d3b          	addw	s10,a5,s10
    80000ce4:	f9dc62e3          	bltu	s8,t4,80000c68 <bench_md5_run+0x1a0>
    80000ce8:	01c347b3          	xor	a5,t1,t3
    80000cec:	0117f7b3          	and	a5,a5,a7
    80000cf0:	00fe47b3          	xor	a5,t3,a5
    80000cf4:	0007879b          	sext.w	a5,a5
    80000cf8:	000e8693          	mv	a3,t4
    80000cfc:	f85ff06f          	j	80000c80 <bench_md5_run+0x1b8>
    80000d00:	01c347b3          	xor	a5,t1,t3
    80000d04:	0117c7b3          	xor	a5,a5,a7
    80000d08:	01db6863          	bltu	s6,t4,80000d18 <bench_md5_run+0x250>
    80000d0c:	0007879b          	sext.w	a5,a5
    80000d10:	00f4f693          	andi	a3,s1,15
    80000d14:	f6dff06f          	j	80000c80 <bench_md5_run+0x1b8>
    80000d18:	00f47793          	andi	a5,s0,15
    80000d1c:	04010693          	addi	a3,sp,64
    80000d20:	00279793          	slli	a5,a5,0x2
    80000d24:	00f687b3          	add	a5,a3,a5
    80000d28:	fc07a783          	lw	a5,-64(a5)
    80000d2c:	fffe4693          	not	a3,t3
    80000d30:	0116e6b3          	or	a3,a3,a7
    80000d34:	0066c6b3          	xor	a3,a3,t1
    80000d38:	00d787bb          	addw	a5,a5,a3
    80000d3c:	01a787bb          	addw	a5,a5,s10
    80000d40:	41900d3b          	negw	s10,s9
    80000d44:	019796bb          	sllw	a3,a5,s9
    80000d48:	01a7d7bb          	srlw	a5,a5,s10
    80000d4c:	00f6e6b3          	or	a3,a3,a5
    80000d50:	011686bb          	addw	a3,a3,a7
    80000d54:	f55e9ee3          	bne	t4,s5,80000cb0 <bench_md5_run+0x1e8>
    80000d58:	04028293          	addi	t0,t0,64
    80000d5c:	010e083b          	addw	a6,t3,a6
    80000d60:	00a6853b          	addw	a0,a3,a0
    80000d64:	00b885bb          	addw	a1,a7,a1
    80000d68:	00c3063b          	addw	a2,t1,a2
    80000d6c:	e7e2ece3          	bltu	t0,t5,80000be4 <bench_md5_run+0x11c>
    80000d70:	0088549b          	srliw	s1,a6,0x8
    80000d74:	0108541b          	srliw	s0,a6,0x10
    80000d78:	0188539b          	srliw	t2,a6,0x18
    80000d7c:	0085529b          	srliw	t0,a0,0x8
    80000d80:	01055f9b          	srliw	t6,a0,0x10
    80000d84:	01855f1b          	srliw	t5,a0,0x18
    80000d88:	0085de9b          	srliw	t4,a1,0x8
    80000d8c:	0105de1b          	srliw	t3,a1,0x10
    80000d90:	0185d31b          	srliw	t1,a1,0x18
    80000d94:	0086589b          	srliw	a7,a2,0x8
    80000d98:	0106569b          	srliw	a3,a2,0x10
    80000d9c:	0186579b          	srliw	a5,a2,0x18
    80000da0:	01070023          	sb	a6,0(a4)
    80000da4:	009700a3          	sb	s1,1(a4)
    80000da8:	00870123          	sb	s0,2(a4)
    80000dac:	007701a3          	sb	t2,3(a4)
    80000db0:	00a70223          	sb	a0,4(a4)
    80000db4:	005702a3          	sb	t0,5(a4)
    80000db8:	01f70323          	sb	t6,6(a4)
    80000dbc:	01e703a3          	sb	t5,7(a4)
    80000dc0:	00b70423          	sb	a1,8(a4)
    80000dc4:	01d704a3          	sb	t4,9(a4)
    80000dc8:	01c70523          	sb	t3,10(a4)
    80000dcc:	006705a3          	sb	t1,11(a4)
    80000dd0:	00c70623          	sb	a2,12(a4)
    80000dd4:	011706a3          	sb	a7,13(a4)
    80000dd8:	00d70723          	sb	a3,14(a4)
    80000ddc:	00f707a3          	sb	a5,15(a4)
    80000de0:	09813403          	ld	s0,152(sp)
    80000de4:	09013483          	ld	s1,144(sp)
    80000de8:	08813903          	ld	s2,136(sp)
    80000dec:	08013983          	ld	s3,128(sp)
    80000df0:	07813a03          	ld	s4,120(sp)
    80000df4:	07013a83          	ld	s5,112(sp)
    80000df8:	06813b03          	ld	s6,104(sp)
    80000dfc:	06013b83          	ld	s7,96(sp)
    80000e00:	05813c03          	ld	s8,88(sp)
    80000e04:	05013c83          	ld	s9,80(sp)
    80000e08:	04813d03          	ld	s10,72(sp)
    80000e0c:	04013d83          	ld	s11,64(sp)
    80000e10:	0a010113          	addi	sp,sp,160
    80000e14:	00008067          	ret
    80000e18:	f8000793          	li	a5,-128
    80000e1c:	00f60023          	sb	a5,0(a2)
    80000e20:	01ef8633          	add	a2,t6,t5
    80000e24:	d39ff06f          	j	80000b5c <bench_md5_run+0x94>

0000000080000e28 <bench_md5_validate>:
    80000e28:	00005517          	auipc	a0,0x5
    80000e2c:	47853503          	ld	a0,1144(a0) # 800062a0 <digest>
    80000e30:	ff010113          	addi	sp,sp,-16
    80000e34:	01050593          	addi	a1,a0,16
    80000e38:	00113423          	sd	ra,8(sp)
    80000e3c:	304010ef          	jal	ra,80002140 <checksum>
    80000e40:	00005797          	auipc	a5,0x5
    80000e44:	5407b783          	ld	a5,1344(a5) # 80006380 <setting>
    80000e48:	0187a783          	lw	a5,24(a5)
    80000e4c:	00813083          	ld	ra,8(sp)
    80000e50:	0005051b          	sext.w	a0,a0
    80000e54:	40a78533          	sub	a0,a5,a0
    80000e58:	00153513          	seqz	a0,a0
    80000e5c:	01010113          	addi	sp,sp,16
    80000e60:	00008067          	ret

0000000080000e64 <bench_fib_prepare>:
    80000e64:	00005797          	auipc	a5,0x5
    80000e68:	51c7b783          	ld	a5,1308(a5) # 80006380 <setting>
    80000e6c:	0007a783          	lw	a5,0(a5)
    80000e70:	ff010113          	addi	sp,sp,-16
    80000e74:	00813023          	sd	s0,0(sp)
    80000e78:	02f7843b          	mulw	s0,a5,a5
    80000e7c:	00113423          	sd	ra,8(sp)
    80000e80:	00005717          	auipc	a4,0x5
    80000e84:	42f72c23          	sw	a5,1080(a4) # 800062b8 <M>
    80000e88:	0024141b          	slliw	s0,s0,0x2
    80000e8c:	00040513          	mv	a0,s0
    80000e90:	1cc010ef          	jal	ra,8000205c <bench_alloc>
    80000e94:	00050793          	mv	a5,a0
    80000e98:	00040513          	mv	a0,s0
    80000e9c:	00005717          	auipc	a4,0x5
    80000ea0:	40f73a23          	sd	a5,1044(a4) # 800062b0 <A>
    80000ea4:	1b8010ef          	jal	ra,8000205c <bench_alloc>
    80000ea8:	00050793          	mv	a5,a0
    80000eac:	00040513          	mv	a0,s0
    80000eb0:	00005717          	auipc	a4,0x5
    80000eb4:	40f73823          	sd	a5,1040(a4) # 800062c0 <T>
    80000eb8:	1a4010ef          	jal	ra,8000205c <bench_alloc>
    80000ebc:	00050793          	mv	a5,a0
    80000ec0:	00040513          	mv	a0,s0
    80000ec4:	00005717          	auipc	a4,0x5
    80000ec8:	40f73223          	sd	a5,1028(a4) # 800062c8 <ans>
    80000ecc:	190010ef          	jal	ra,8000205c <bench_alloc>
    80000ed0:	00813083          	ld	ra,8(sp)
    80000ed4:	00013403          	ld	s0,0(sp)
    80000ed8:	00005797          	auipc	a5,0x5
    80000edc:	3ea7bc23          	sd	a0,1016(a5) # 800062d0 <tmp>
    80000ee0:	01010113          	addi	sp,sp,16
    80000ee4:	00008067          	ret

0000000080000ee8 <bench_fib_run>:
    80000ee8:	fc010113          	addi	sp,sp,-64
    80000eec:	02813c23          	sd	s0,56(sp)
    80000ef0:	02913823          	sd	s1,48(sp)
    80000ef4:	03213423          	sd	s2,40(sp)
    80000ef8:	03313023          	sd	s3,32(sp)
    80000efc:	01413c23          	sd	s4,24(sp)
    80000f00:	01513823          	sd	s5,16(sp)
    80000f04:	01613423          	sd	s6,8(sp)
    80000f08:	00005817          	auipc	a6,0x5
    80000f0c:	3b082803          	lw	a6,944(a6) # 800062b8 <M>
    80000f10:	00005e17          	auipc	t3,0x5
    80000f14:	3b0e3e03          	ld	t3,944(t3) # 800062c0 <T>
    80000f18:	00005f97          	auipc	t6,0x5
    80000f1c:	3b0fbf83          	ld	t6,944(t6) # 800062c8 <ans>
    80000f20:	25005863          	blez	a6,80001170 <bench_fib_run+0x288>
    80000f24:	fff8099b          	addiw	s3,a6,-1
    80000f28:	00005417          	auipc	s0,0x5
    80000f2c:	38843403          	ld	s0,904(s0) # 800062b0 <A>
    80000f30:	0009839b          	sext.w	t2,s3
    80000f34:	00281313          	slli	t1,a6,0x2
    80000f38:	00000913          	li	s2,0
    80000f3c:	00000493          	li	s1,0
    80000f40:	00000293          	li	t0,0
    80000f44:	0012829b          	addiw	t0,t0,1
    80000f48:	00090713          	mv	a4,s2
    80000f4c:	00000793          	li	a5,0
    80000f50:	0004859b          	sext.w	a1,s1
    80000f54:	40b786b3          	sub	a3,a5,a1
    80000f58:	40578f33          	sub	t5,a5,t0
    80000f5c:	00e40eb3          	add	t4,s0,a4
    80000f60:	00ee08b3          	add	a7,t3,a4
    80000f64:	00ef8533          	add	a0,t6,a4
    80000f68:	0016b693          	seqz	a3,a3
    80000f6c:	0017879b          	addiw	a5,a5,1
    80000f70:	00100613          	li	a2,1
    80000f74:	00b38463          	beq	t2,a1,80000f7c <bench_fib_run+0x94>
    80000f78:	001f3613          	seqz	a2,t5
    80000f7c:	00cea023          	sw	a2,0(t4)
    80000f80:	00c8a023          	sw	a2,0(a7)
    80000f84:	00d52023          	sw	a3,0(a0)
    80000f88:	00470713          	addi	a4,a4,4
    80000f8c:	fd0794e3          	bne	a5,a6,80000f54 <bench_fib_run+0x6c>
    80000f90:	0014849b          	addiw	s1,s1,1
    80000f94:	00690933          	add	s2,s2,t1
    80000f98:	fa5816e3          	bne	a6,t0,80000f44 <bench_fib_run+0x5c>
    80000f9c:	02099793          	slli	a5,s3,0x20
    80000fa0:	0207d793          	srli	a5,a5,0x20
    80000fa4:	00005297          	auipc	t0,0x5
    80000fa8:	32c2b283          	ld	t0,812(t0) # 800062d0 <tmp>
    80000fac:	00279793          	slli	a5,a5,0x2
    80000fb0:	004f8393          	addi	t2,t6,4
    80000fb4:	00428413          	addi	s0,t0,4
    80000fb8:	80000eb7          	lui	t4,0x80000
    80000fbc:	00f383b3          	add	t2,t2,a5
    80000fc0:	00f40433          	add	s0,s0,a5
    80000fc4:	01f00f13          	li	t5,31
    80000fc8:	fd3ece93          	xori	t4,t4,-45
    80000fcc:	001ef793          	andi	a5,t4,1
    80000fd0:	0e079463          	bnez	a5,800010b8 <bench_fib_run+0x1d0>
    80000fd4:	0b005a63          	blez	a6,80001088 <bench_fib_run+0x1a0>
    80000fd8:	000e0993          	mv	s3,t3
    80000fdc:	00028a93          	mv	s5,t0
    80000fe0:	000e0913          	mv	s2,t3
    80000fe4:	00000a13          	li	s4,0
    80000fe8:	000e0493          	mv	s1,t3
    80000fec:	000a8513          	mv	a0,s5
    80000ff0:	00000893          	li	a7,0
    80000ff4:	00052023          	sw	zero,0(a0)
    80000ff8:	00048593          	mv	a1,s1
    80000ffc:	00090613          	mv	a2,s2
    80001000:	00000793          	li	a5,0
    80001004:	00000693          	li	a3,0
    80001008:	00062703          	lw	a4,0(a2)
    8000100c:	0005ab03          	lw	s6,0(a1)
    80001010:	0016869b          	addiw	a3,a3,1
    80001014:	00460613          	addi	a2,a2,4
    80001018:	0367073b          	mulw	a4,a4,s6
    8000101c:	006585b3          	add	a1,a1,t1
    80001020:	00f707bb          	addw	a5,a4,a5
    80001024:	00f52023          	sw	a5,0(a0)
    80001028:	ff06c0e3          	blt	a3,a6,80001008 <bench_fib_run+0x120>
    8000102c:	0018889b          	addiw	a7,a7,1
    80001030:	00450513          	addi	a0,a0,4
    80001034:	00448493          	addi	s1,s1,4
    80001038:	fb08cee3          	blt	a7,a6,80000ff4 <bench_fib_run+0x10c>
    8000103c:	001a0a1b          	addiw	s4,s4,1
    80001040:	00690933          	add	s2,s2,t1
    80001044:	006a8ab3          	add	s5,s5,t1
    80001048:	fb0a40e3          	blt	s4,a6,80000fe8 <bench_fib_run+0x100>
    8000104c:	00028513          	mv	a0,t0
    80001050:	00000593          	li	a1,0
    80001054:	00098693          	mv	a3,s3
    80001058:	00050713          	mv	a4,a0
    8000105c:	00000793          	li	a5,0
    80001060:	00072603          	lw	a2,0(a4)
    80001064:	0017879b          	addiw	a5,a5,1
    80001068:	00470713          	addi	a4,a4,4
    8000106c:	00c6a023          	sw	a2,0(a3)
    80001070:	00468693          	addi	a3,a3,4
    80001074:	ff07c6e3          	blt	a5,a6,80001060 <bench_fib_run+0x178>
    80001078:	0015859b          	addiw	a1,a1,1
    8000107c:	00650533          	add	a0,a0,t1
    80001080:	006989b3          	add	s3,s3,t1
    80001084:	fd05c8e3          	blt	a1,a6,80001054 <bench_fib_run+0x16c>
    80001088:	ffff0f1b          	addiw	t5,t5,-1
    8000108c:	401ede93          	srai	t4,t4,0x1
    80001090:	f20f1ee3          	bnez	t5,80000fcc <bench_fib_run+0xe4>
    80001094:	03813403          	ld	s0,56(sp)
    80001098:	03013483          	ld	s1,48(sp)
    8000109c:	02813903          	ld	s2,40(sp)
    800010a0:	02013983          	ld	s3,32(sp)
    800010a4:	01813a03          	ld	s4,24(sp)
    800010a8:	01013a83          	ld	s5,16(sp)
    800010ac:	00813b03          	ld	s6,8(sp)
    800010b0:	04010113          	addi	sp,sp,64
    800010b4:	00008067          	ret
    800010b8:	fd0058e3          	blez	a6,80001088 <bench_fib_run+0x1a0>
    800010bc:	00028a93          	mv	s5,t0
    800010c0:	00038893          	mv	a7,t2
    800010c4:	000f8993          	mv	s3,t6
    800010c8:	00000a13          	li	s4,0
    800010cc:	000e0913          	mv	s2,t3
    800010d0:	000a8513          	mv	a0,s5
    800010d4:	00000493          	li	s1,0
    800010d8:	00052023          	sw	zero,0(a0)
    800010dc:	00090613          	mv	a2,s2
    800010e0:	00098713          	mv	a4,s3
    800010e4:	00000793          	li	a5,0
    800010e8:	00072683          	lw	a3,0(a4)
    800010ec:	00062583          	lw	a1,0(a2)
    800010f0:	00470713          	addi	a4,a4,4
    800010f4:	00660633          	add	a2,a2,t1
    800010f8:	02b686bb          	mulw	a3,a3,a1
    800010fc:	00f687bb          	addw	a5,a3,a5
    80001100:	00f52023          	sw	a5,0(a0)
    80001104:	fee892e3          	bne	a7,a4,800010e8 <bench_fib_run+0x200>
    80001108:	0014849b          	addiw	s1,s1,1
    8000110c:	00450513          	addi	a0,a0,4
    80001110:	00490913          	addi	s2,s2,4
    80001114:	fd0492e3          	bne	s1,a6,800010d8 <bench_fib_run+0x1f0>
    80001118:	001a0a1b          	addiw	s4,s4,1
    8000111c:	006989b3          	add	s3,s3,t1
    80001120:	006888b3          	add	a7,a7,t1
    80001124:	006a8ab3          	add	s5,s5,t1
    80001128:	fb0a12e3          	bne	s4,a6,800010cc <bench_fib_run+0x1e4>
    8000112c:	00040613          	mv	a2,s0
    80001130:	000f8893          	mv	a7,t6
    80001134:	00028513          	mv	a0,t0
    80001138:	00000593          	li	a1,0
    8000113c:	00088713          	mv	a4,a7
    80001140:	00050793          	mv	a5,a0
    80001144:	0007a683          	lw	a3,0(a5)
    80001148:	00478793          	addi	a5,a5,4
    8000114c:	00470713          	addi	a4,a4,4
    80001150:	fed72e23          	sw	a3,-4(a4)
    80001154:	fec798e3          	bne	a5,a2,80001144 <bench_fib_run+0x25c>
    80001158:	0015859b          	addiw	a1,a1,1
    8000115c:	00650533          	add	a0,a0,t1
    80001160:	006888b3          	add	a7,a7,t1
    80001164:	00660633          	add	a2,a2,t1
    80001168:	fd059ae3          	bne	a1,a6,8000113c <bench_fib_run+0x254>
    8000116c:	e6dff06f          	j	80000fd8 <bench_fib_run+0xf0>
    80001170:	00281313          	slli	t1,a6,0x2
    80001174:	fff8099b          	addiw	s3,a6,-1
    80001178:	e25ff06f          	j	80000f9c <bench_fib_run+0xb4>

000000008000117c <bench_fib_validate>:
    8000117c:	00005797          	auipc	a5,0x5
    80001180:	13c7a783          	lw	a5,316(a5) # 800062b8 <M>
    80001184:	fff7871b          	addiw	a4,a5,-1
    80001188:	02e787bb          	mulw	a5,a5,a4
    8000118c:	00005697          	auipc	a3,0x5
    80001190:	1f46b683          	ld	a3,500(a3) # 80006380 <setting>
    80001194:	0186a683          	lw	a3,24(a3)
    80001198:	00e787bb          	addw	a5,a5,a4
    8000119c:	00279793          	slli	a5,a5,0x2
    800011a0:	00005717          	auipc	a4,0x5
    800011a4:	12873703          	ld	a4,296(a4) # 800062c8 <ans>
    800011a8:	00f707b3          	add	a5,a4,a5
    800011ac:	0007a503          	lw	a0,0(a5)
    800011b0:	40d50533          	sub	a0,a0,a3
    800011b4:	00153513          	seqz	a0,a0
    800011b8:	00008067          	ret

00000000800011bc <myqsort>:
    800011bc:	fd010113          	addi	sp,sp,-48
    800011c0:	01213823          	sd	s2,16(sp)
    800011c4:	01313423          	sd	s3,8(sp)
    800011c8:	01413023          	sd	s4,0(sp)
    800011cc:	02113423          	sd	ra,40(sp)
    800011d0:	02813023          	sd	s0,32(sp)
    800011d4:	00913c23          	sd	s1,24(sp)
    800011d8:	00060a13          	mv	s4,a2
    800011dc:	00050993          	mv	s3,a0
    800011e0:	00850913          	addi	s2,a0,8
    800011e4:	0b45dc63          	bge	a1,s4,8000129c <myqsort+0xe0>
    800011e8:	00259793          	slli	a5,a1,0x2
    800011ec:	00f98e33          	add	t3,s3,a5
    800011f0:	0015871b          	addiw	a4,a1,1
    800011f4:	000e2303          	lw	t1,0(t3)
    800011f8:	ffea049b          	addiw	s1,s4,-2
    800011fc:	09475c63          	bge	a4,s4,80001294 <myqsort+0xd8>
    80001200:	40b4883b          	subw	a6,s1,a1
    80001204:	02081813          	slli	a6,a6,0x20
    80001208:	02085813          	srli	a6,a6,0x20
    8000120c:	00b80833          	add	a6,a6,a1
    80001210:	00478793          	addi	a5,a5,4
    80001214:	00281813          	slli	a6,a6,0x2
    80001218:	00f987b3          	add	a5,s3,a5
    8000121c:	01280833          	add	a6,a6,s2
    80001220:	00058613          	mv	a2,a1
    80001224:	0007a683          	lw	a3,0(a5)
    80001228:	0016041b          	addiw	s0,a2,1
    8000122c:	00241713          	slli	a4,s0,0x2
    80001230:	0026051b          	addiw	a0,a2,2
    80001234:	00e98733          	add	a4,s3,a4
    80001238:	0066dc63          	bge	a3,t1,80001250 <myqsort+0x94>
    8000123c:	00072883          	lw	a7,0(a4)
    80001240:	00d72023          	sw	a3,0(a4)
    80001244:	00040613          	mv	a2,s0
    80001248:	0117a023          	sw	a7,0(a5)
    8000124c:	00050413          	mv	s0,a0
    80001250:	00478793          	addi	a5,a5,4
    80001254:	fcf818e3          	bne	a6,a5,80001224 <myqsort+0x68>
    80001258:	00261793          	slli	a5,a2,0x2
    8000125c:	000e2683          	lw	a3,0(t3)
    80001260:	00f987b3          	add	a5,s3,a5
    80001264:	0007a703          	lw	a4,0(a5)
    80001268:	00d7a023          	sw	a3,0(a5)
    8000126c:	00098513          	mv	a0,s3
    80001270:	00ee2023          	sw	a4,0(t3)
    80001274:	f49ff0ef          	jal	ra,800011bc <myqsort>
    80001278:	03445263          	bge	s0,s4,8000129c <myqsort+0xe0>
    8000127c:	00040593          	mv	a1,s0
    80001280:	00259793          	slli	a5,a1,0x2
    80001284:	00f98e33          	add	t3,s3,a5
    80001288:	0015871b          	addiw	a4,a1,1
    8000128c:	000e2303          	lw	t1,0(t3)
    80001290:	f74748e3          	blt	a4,s4,80001200 <myqsort+0x44>
    80001294:	00058a13          	mv	s4,a1
    80001298:	f545c8e3          	blt	a1,s4,800011e8 <myqsort+0x2c>
    8000129c:	02813083          	ld	ra,40(sp)
    800012a0:	02013403          	ld	s0,32(sp)
    800012a4:	01813483          	ld	s1,24(sp)
    800012a8:	01013903          	ld	s2,16(sp)
    800012ac:	00813983          	ld	s3,8(sp)
    800012b0:	00013a03          	ld	s4,0(sp)
    800012b4:	03010113          	addi	sp,sp,48
    800012b8:	00008067          	ret

00000000800012bc <bench_qsort_prepare>:
    800012bc:	fd010113          	addi	sp,sp,-48
    800012c0:	00100513          	li	a0,1
    800012c4:	02113423          	sd	ra,40(sp)
    800012c8:	01213823          	sd	s2,16(sp)
    800012cc:	01313423          	sd	s3,8(sp)
    800012d0:	02813023          	sd	s0,32(sp)
    800012d4:	00913c23          	sd	s1,24(sp)
    800012d8:	621000ef          	jal	ra,800020f8 <bench_srand>
    800012dc:	00005797          	auipc	a5,0x5
    800012e0:	0a47b783          	ld	a5,164(a5) # 80006380 <setting>
    800012e4:	0007a783          	lw	a5,0(a5)
    800012e8:	00005917          	auipc	s2,0x5
    800012ec:	ff090913          	addi	s2,s2,-16 # 800062d8 <N>
    800012f0:	00005997          	auipc	s3,0x5
    800012f4:	ff098993          	addi	s3,s3,-16 # 800062e0 <data>
    800012f8:	00279513          	slli	a0,a5,0x2
    800012fc:	00f92023          	sw	a5,0(s2)
    80001300:	55d000ef          	jal	ra,8000205c <bench_alloc>
    80001304:	00092783          	lw	a5,0(s2)
    80001308:	00a9b023          	sd	a0,0(s3)
    8000130c:	02f05e63          	blez	a5,80001348 <bench_qsort_prepare+0x8c>
    80001310:	00000493          	li	s1,0
    80001314:	5f9000ef          	jal	ra,8000210c <bench_rand>
    80001318:	0005041b          	sext.w	s0,a0
    8000131c:	5f1000ef          	jal	ra,8000210c <bench_rand>
    80001320:	0009b783          	ld	a5,0(s3)
    80001324:	00249693          	slli	a3,s1,0x2
    80001328:	0104141b          	slliw	s0,s0,0x10
    8000132c:	00092703          	lw	a4,0(s2)
    80001330:	00d787b3          	add	a5,a5,a3
    80001334:	00856433          	or	s0,a0,s0
    80001338:	00148493          	addi	s1,s1,1
    8000133c:	0087a023          	sw	s0,0(a5)
    80001340:	0004879b          	sext.w	a5,s1
    80001344:	fce7c8e3          	blt	a5,a4,80001314 <bench_qsort_prepare+0x58>
    80001348:	02813083          	ld	ra,40(sp)
    8000134c:	02013403          	ld	s0,32(sp)
    80001350:	01813483          	ld	s1,24(sp)
    80001354:	01013903          	ld	s2,16(sp)
    80001358:	00813983          	ld	s3,8(sp)
    8000135c:	03010113          	addi	sp,sp,48
    80001360:	00008067          	ret

0000000080001364 <bench_qsort_run>:
    80001364:	00005617          	auipc	a2,0x5
    80001368:	f7462603          	lw	a2,-140(a2) # 800062d8 <N>
    8000136c:	00000593          	li	a1,0
    80001370:	00005517          	auipc	a0,0x5
    80001374:	f7053503          	ld	a0,-144(a0) # 800062e0 <data>
    80001378:	e45ff06f          	j	800011bc <myqsort>

000000008000137c <bench_qsort_validate>:
    8000137c:	00005597          	auipc	a1,0x5
    80001380:	f5c5a583          	lw	a1,-164(a1) # 800062d8 <N>
    80001384:	00005517          	auipc	a0,0x5
    80001388:	f5c53503          	ld	a0,-164(a0) # 800062e0 <data>
    8000138c:	00259593          	slli	a1,a1,0x2
    80001390:	ff010113          	addi	sp,sp,-16
    80001394:	00b505b3          	add	a1,a0,a1
    80001398:	00113423          	sd	ra,8(sp)
    8000139c:	5a5000ef          	jal	ra,80002140 <checksum>
    800013a0:	00005797          	auipc	a5,0x5
    800013a4:	fe07b783          	ld	a5,-32(a5) # 80006380 <setting>
    800013a8:	0187a783          	lw	a5,24(a5)
    800013ac:	00813083          	ld	ra,8(sp)
    800013b0:	0005051b          	sext.w	a0,a0
    800013b4:	40a78533          	sub	a0,a5,a0
    800013b8:	00153513          	seqz	a0,a0
    800013bc:	01010113          	addi	sp,sp,16
    800013c0:	00008067          	ret

00000000800013c4 <_ZL9radixPassPiS_S_ii>:
    800013c4:	fd010113          	addi	sp,sp,-48
    800013c8:	0017079b          	addiw	a5,a4,1
    800013cc:	02813023          	sd	s0,32(sp)
    800013d0:	01413023          	sd	s4,0(sp)
    800013d4:	00050413          	mv	s0,a0
    800013d8:	00070a13          	mv	s4,a4
    800013dc:	00279513          	slli	a0,a5,0x2
    800013e0:	00913c23          	sd	s1,24(sp)
    800013e4:	01213823          	sd	s2,16(sp)
    800013e8:	01313423          	sd	s3,8(sp)
    800013ec:	02113423          	sd	ra,40(sp)
    800013f0:	00058993          	mv	s3,a1
    800013f4:	00060493          	mv	s1,a2
    800013f8:	00068913          	mv	s2,a3
    800013fc:	461000ef          	jal	ra,8000205c <bench_alloc>
    80001400:	0e0a4c63          	bltz	s4,800014f8 <_ZL9radixPassPiS_S_ii+0x134>
    80001404:	001a0713          	addi	a4,s4,1
    80001408:	00271713          	slli	a4,a4,0x2
    8000140c:	00050793          	mv	a5,a0
    80001410:	00a70733          	add	a4,a4,a0
    80001414:	0007a023          	sw	zero,0(a5)
    80001418:	00478793          	addi	a5,a5,4
    8000141c:	fef71ce3          	bne	a4,a5,80001414 <_ZL9radixPassPiS_S_ii+0x50>
    80001420:	05205663          	blez	s2,8000146c <_ZL9radixPassPiS_S_ii+0xa8>
    80001424:	fff9071b          	addiw	a4,s2,-1
    80001428:	02071713          	slli	a4,a4,0x20
    8000142c:	01e75793          	srli	a5,a4,0x1e
    80001430:	00440713          	addi	a4,s0,4
    80001434:	00040813          	mv	a6,s0
    80001438:	00e78733          	add	a4,a5,a4
    8000143c:	00082783          	lw	a5,0(a6)
    80001440:	00480813          	addi	a6,a6,4
    80001444:	00279793          	slli	a5,a5,0x2
    80001448:	00f487b3          	add	a5,s1,a5
    8000144c:	0007a783          	lw	a5,0(a5)
    80001450:	00279793          	slli	a5,a5,0x2
    80001454:	00f507b3          	add	a5,a0,a5
    80001458:	0007a883          	lw	a7,0(a5)
    8000145c:	0018889b          	addiw	a7,a7,1
    80001460:	0117a023          	sw	a7,0(a5)
    80001464:	fd071ce3          	bne	a4,a6,8000143c <_ZL9radixPassPiS_S_ii+0x78>
    80001468:	020a4663          	bltz	s4,80001494 <_ZL9radixPassPiS_S_ii+0xd0>
    8000146c:	00050793          	mv	a5,a0
    80001470:	00000693          	li	a3,0
    80001474:	00000813          	li	a6,0
    80001478:	0007a603          	lw	a2,0(a5)
    8000147c:	0018081b          	addiw	a6,a6,1
    80001480:	00d7a023          	sw	a3,0(a5)
    80001484:	00d606bb          	addw	a3,a2,a3
    80001488:	00478793          	addi	a5,a5,4
    8000148c:	ff0a56e3          	bge	s4,a6,80001478 <_ZL9radixPassPiS_S_ii+0xb4>
    80001490:	05205463          	blez	s2,800014d8 <_ZL9radixPassPiS_S_ii+0x114>
    80001494:	00040893          	mv	a7,s0
    80001498:	00000813          	li	a6,0
    8000149c:	0008a683          	lw	a3,0(a7)
    800014a0:	0018081b          	addiw	a6,a6,1
    800014a4:	00488893          	addi	a7,a7,4
    800014a8:	00269793          	slli	a5,a3,0x2
    800014ac:	00f487b3          	add	a5,s1,a5
    800014b0:	0007a703          	lw	a4,0(a5)
    800014b4:	00271713          	slli	a4,a4,0x2
    800014b8:	00e50733          	add	a4,a0,a4
    800014bc:	00072783          	lw	a5,0(a4)
    800014c0:	0017861b          	addiw	a2,a5,1
    800014c4:	00279793          	slli	a5,a5,0x2
    800014c8:	00c72023          	sw	a2,0(a4)
    800014cc:	00f987b3          	add	a5,s3,a5
    800014d0:	00d7a023          	sw	a3,0(a5)
    800014d4:	fd2844e3          	blt	a6,s2,8000149c <_ZL9radixPassPiS_S_ii+0xd8>
    800014d8:	02813083          	ld	ra,40(sp)
    800014dc:	02013403          	ld	s0,32(sp)
    800014e0:	01813483          	ld	s1,24(sp)
    800014e4:	01013903          	ld	s2,16(sp)
    800014e8:	00813983          	ld	s3,8(sp)
    800014ec:	00013a03          	ld	s4,0(sp)
    800014f0:	03010113          	addi	sp,sp,48
    800014f4:	00008067          	ret
    800014f8:	f32046e3          	bgtz	s2,80001424 <_ZL9radixPassPiS_S_ii+0x60>
    800014fc:	fddff06f          	j	800014d8 <_ZL9radixPassPiS_S_ii+0x114>

0000000080001500 <_Z11suffixArrayPiS_ii>:
    80001500:	f7010113          	addi	sp,sp,-144
    80001504:	05613823          	sd	s6,80(sp)
    80001508:	00060b13          	mv	s6,a2
    8000150c:	07213823          	sd	s2,112(sp)
    80001510:	00300613          	li	a2,3
    80001514:	002b091b          	addiw	s2,s6,2
    80001518:	08813023          	sd	s0,128(sp)
    8000151c:	02c9443b          	divw	s0,s2,a2
    80001520:	03a13823          	sd	s10,48(sp)
    80001524:	05513c23          	sd	s5,88(sp)
    80001528:	07413023          	sd	s4,96(sp)
    8000152c:	07313423          	sd	s3,104(sp)
    80001530:	05713423          	sd	s7,72(sp)
    80001534:	00050993          	mv	s3,a0
    80001538:	00c13c23          	sd	a2,24(sp)
    8000153c:	08113423          	sd	ra,136(sp)
    80001540:	06913c23          	sd	s1,120(sp)
    80001544:	05813023          	sd	s8,64(sp)
    80001548:	03913c23          	sd	s9,56(sp)
    8000154c:	00058c13          	mv	s8,a1
    80001550:	03b13423          	sd	s11,40(sp)
    80001554:	00068c93          	mv	s9,a3
    80001558:	02cb4d3b          	divw	s10,s6,a2
    8000155c:	00241713          	slli	a4,s0,0x2
    80001560:	00e13823          	sd	a4,16(sp)
    80001564:	008d0abb          	addw	s5,s10,s0
    80001568:	003a8a1b          	addiw	s4,s5,3
    8000156c:	002a1a13          	slli	s4,s4,0x2
    80001570:	000a0513          	mv	a0,s4
    80001574:	002a8b93          	addi	s7,s5,2
    80001578:	2e5000ef          	jal	ra,8000205c <bench_alloc>
    8000157c:	002b9b93          	slli	s7,s7,0x2
    80001580:	ffcb8793          	addi	a5,s7,-4 # fffc <_entry_offset+0xfffc>
    80001584:	017506b3          	add	a3,a0,s7
    80001588:	0006a023          	sw	zero,0(a3)
    8000158c:	ff8b8d93          	addi	s11,s7,-8
    80001590:	00f506b3          	add	a3,a0,a5
    80001594:	0006a023          	sw	zero,0(a3)
    80001598:	01b506b3          	add	a3,a0,s11
    8000159c:	0006a023          	sw	zero,0(a3)
    800015a0:	00050493          	mv	s1,a0
    800015a4:	000a0513          	mv	a0,s4
    800015a8:	00f13423          	sd	a5,8(sp)
    800015ac:	2b1000ef          	jal	ra,8000205c <bench_alloc>
    800015b0:	00813783          	ld	a5,8(sp)
    800015b4:	01013703          	ld	a4,16(sp)
    800015b8:	01750bb3          	add	s7,a0,s7
    800015bc:	00f507b3          	add	a5,a0,a5
    800015c0:	000ba023          	sw	zero,0(s7)
    800015c4:	0007a023          	sw	zero,0(a5)
    800015c8:	01b50db3          	add	s11,a0,s11
    800015cc:	000da023          	sw	zero,0(s11) # ffffffff80000000 <_end+0xfffffffeffff1000>
    800015d0:	00050a13          	mv	s4,a0
    800015d4:	00070513          	mv	a0,a4
    800015d8:	00e13423          	sd	a4,8(sp)
    800015dc:	281000ef          	jal	ra,8000205c <bench_alloc>
    800015e0:	00813703          	ld	a4,8(sp)
    800015e4:	00050d93          	mv	s11,a0
    800015e8:	000a8d13          	mv	s10,s5
    800015ec:	00070513          	mv	a0,a4
    800015f0:	26d000ef          	jal	ra,8000205c <bench_alloc>
    800015f4:	01813603          	ld	a2,24(sp)
    800015f8:	001b079b          	addiw	a5,s6,1
    800015fc:	00050b93          	mv	s7,a0
    80001600:	02c7c7bb          	divw	a5,a5,a2
    80001604:	00000693          	li	a3,0
    80001608:	00000613          	li	a2,0
    8000160c:	00300813          	li	a6,3
    80001610:	40f4093b          	subw	s2,s0,a5
    80001614:	0169053b          	addw	a0,s2,s6
    80001618:	02a05e63          	blez	a0,80001654 <_Z11suffixArrayPiS_ii+0x154>
    8000161c:	0016869b          	addiw	a3,a3,1
    80001620:	00261793          	slli	a5,a2,0x2
    80001624:	00068713          	mv	a4,a3
    80001628:	00f487b3          	add	a5,s1,a5
    8000162c:	02a68463          	beq	a3,a0,80001654 <_Z11suffixArrayPiS_ii+0x154>
    80001630:	030765bb          	remw	a1,a4,a6
    80001634:	fe0584e3          	beqz	a1,8000161c <_Z11suffixArrayPiS_ii+0x11c>
    80001638:	0016061b          	addiw	a2,a2,1
    8000163c:	00e7a023          	sw	a4,0(a5)
    80001640:	0016869b          	addiw	a3,a3,1
    80001644:	00261793          	slli	a5,a2,0x2
    80001648:	00068713          	mv	a4,a3
    8000164c:	00f487b3          	add	a5,s1,a5
    80001650:	fea690e3          	bne	a3,a0,80001630 <_Z11suffixArrayPiS_ii+0x130>
    80001654:	00898613          	addi	a2,s3,8
    80001658:	000a0593          	mv	a1,s4
    8000165c:	00048513          	mv	a0,s1
    80001660:	000c8713          	mv	a4,s9
    80001664:	000a8693          	mv	a3,s5
    80001668:	d5dff0ef          	jal	ra,800013c4 <_ZL9radixPassPiS_S_ii>
    8000166c:	000c8713          	mv	a4,s9
    80001670:	000a8693          	mv	a3,s5
    80001674:	00498613          	addi	a2,s3,4
    80001678:	00048593          	mv	a1,s1
    8000167c:	000a0513          	mv	a0,s4
    80001680:	d45ff0ef          	jal	ra,800013c4 <_ZL9radixPassPiS_S_ii>
    80001684:	000c8713          	mv	a4,s9
    80001688:	000a8693          	mv	a3,s5
    8000168c:	00098613          	mv	a2,s3
    80001690:	000a0593          	mv	a1,s4
    80001694:	00048513          	mv	a0,s1
    80001698:	d2dff0ef          	jal	ra,800013c4 <_ZL9radixPassPiS_S_ii>
    8000169c:	11505a63          	blez	s5,800017b0 <_Z11suffixArrayPiS_ii+0x2b0>
    800016a0:	fffd081b          	addiw	a6,s10,-1
    800016a4:	02081813          	slli	a6,a6,0x20
    800016a8:	02085813          	srli	a6,a6,0x20
    800016ac:	00180813          	addi	a6,a6,1
    800016b0:	00281813          	slli	a6,a6,0x2
    800016b4:	000a0d13          	mv	s10,s4
    800016b8:	01480833          	add	a6,a6,s4
    800016bc:	000a0613          	mv	a2,s4
    800016c0:	fff00e13          	li	t3,-1
    800016c4:	fff00593          	li	a1,-1
    800016c8:	fff00893          	li	a7,-1
    800016cc:	00000693          	li	a3,0
    800016d0:	00300513          	li	a0,3
    800016d4:	00100313          	li	t1,1
    800016d8:	02c0006f          	j	80001704 <_Z11suffixArrayPiS_ii+0x204>
    800016dc:	02a7c7bb          	divw	a5,a5,a0
    800016e0:	0016869b          	addiw	a3,a3,1
    800016e4:	000f0893          	mv	a7,t5
    800016e8:	0087873b          	addw	a4,a5,s0
    800016ec:	00271713          	slli	a4,a4,0x2
    800016f0:	00e48733          	add	a4,s1,a4
    800016f4:	046e8a63          	beq	t4,t1,80001748 <_Z11suffixArrayPiS_ii+0x248>
    800016f8:	00d72023          	sw	a3,0(a4)
    800016fc:	00460613          	addi	a2,a2,4
    80001700:	04c80e63          	beq	a6,a2,8000175c <_Z11suffixArrayPiS_ii+0x25c>
    80001704:	00062783          	lw	a5,0(a2)
    80001708:	00058f93          	mv	t6,a1
    8000170c:	000e0293          	mv	t0,t3
    80001710:	00279713          	slli	a4,a5,0x2
    80001714:	00e98733          	add	a4,s3,a4
    80001718:	00072f03          	lw	t5,0(a4)
    8000171c:	02a7eebb          	remw	t4,a5,a0
    80001720:	00472583          	lw	a1,4(a4)
    80001724:	00872e03          	lw	t3,8(a4)
    80001728:	fb1f1ae3          	bne	t5,a7,800016dc <_Z11suffixArrayPiS_ii+0x1dc>
    8000172c:	fabf98e3          	bne	t6,a1,800016dc <_Z11suffixArrayPiS_ii+0x1dc>
    80001730:	fbc296e3          	bne	t0,t3,800016dc <_Z11suffixArrayPiS_ii+0x1dc>
    80001734:	02a7c7bb          	divw	a5,a5,a0
    80001738:	0087873b          	addw	a4,a5,s0
    8000173c:	00271713          	slli	a4,a4,0x2
    80001740:	00e48733          	add	a4,s1,a4
    80001744:	fa6e9ae3          	bne	t4,t1,800016f8 <_Z11suffixArrayPiS_ii+0x1f8>
    80001748:	00279793          	slli	a5,a5,0x2
    8000174c:	00f487b3          	add	a5,s1,a5
    80001750:	00d7a023          	sw	a3,0(a5)
    80001754:	00460613          	addi	a2,a2,4
    80001758:	fac816e3          	bne	a6,a2,80001704 <_Z11suffixArrayPiS_ii+0x204>
    8000175c:	00048613          	mv	a2,s1
    80001760:	00000713          	li	a4,0
    80001764:	2d56c063          	blt	a3,s5,80001a24 <_Z11suffixArrayPiS_ii+0x524>
    80001768:	00062783          	lw	a5,0(a2)
    8000176c:	00460613          	addi	a2,a2,4
    80001770:	00279793          	slli	a5,a5,0x2
    80001774:	00fa07b3          	add	a5,s4,a5
    80001778:	fee7ae23          	sw	a4,-4(a5)
    8000177c:	0017071b          	addiw	a4,a4,1
    80001780:	feea94e3          	bne	s5,a4,80001768 <_Z11suffixArrayPiS_ii+0x268>
    80001784:	00000613          	li	a2,0
    80001788:	000d2703          	lw	a4,0(s10)
    8000178c:	00261793          	slli	a5,a2,0x2
    80001790:	004d0d13          	addi	s10,s10,4
    80001794:	0017169b          	slliw	a3,a4,0x1
    80001798:	00fd87b3          	add	a5,s11,a5
    8000179c:	00e686bb          	addw	a3,a3,a4
    800017a0:	00875663          	bge	a4,s0,800017ac <_Z11suffixArrayPiS_ii+0x2ac>
    800017a4:	00d7a023          	sw	a3,0(a5)
    800017a8:	0016061b          	addiw	a2,a2,1
    800017ac:	fd0d1ee3          	bne	s10,a6,80001788 <_Z11suffixArrayPiS_ii+0x288>
    800017b0:	000c8713          	mv	a4,s9
    800017b4:	00040693          	mv	a3,s0
    800017b8:	00098613          	mv	a2,s3
    800017bc:	000b8593          	mv	a1,s7
    800017c0:	000d8513          	mv	a0,s11
    800017c4:	c01ff0ef          	jal	ra,800013c4 <_ZL9radixPassPiS_S_ii>
    800017c8:	0b605c63          	blez	s6,80001880 <_Z11suffixArrayPiS_ii+0x380>
    800017cc:	004a0793          	addi	a5,s4,4
    800017d0:	00000e13          	li	t3,0
    800017d4:	00000f13          	li	t5,0
    800017d8:	00300593          	li	a1,3
    800017dc:	000a8d9b          	sext.w	s11,s5
    800017e0:	fffa8d1b          	addiw	s10,s5,-1
    800017e4:	00f13423          	sd	a5,8(sp)
    800017e8:	00040c9b          	sext.w	s9,s0
    800017ec:	fff4039b          	addiw	t2,s0,-1
    800017f0:	004b8513          	addi	a0,s7,4
    800017f4:	002f1713          	slli	a4,t5,0x2
    800017f8:	00eb8733          	add	a4,s7,a4
    800017fc:	00072e83          	lw	t4,0(a4)
    80001800:	00291813          	slli	a6,s2,0x2
    80001804:	010a0833          	add	a6,s4,a6
    80001808:	00082783          	lw	a5,0(a6)
    8000180c:	002e9313          	slli	t1,t4,0x2
    80001810:	00698333          	add	t1,s3,t1
    80001814:	02bec63b          	divw	a2,t4,a1
    80001818:	00032283          	lw	t0,0(t1)
    8000181c:	0c87d663          	bge	a5,s0,800018e8 <_Z11suffixArrayPiS_ii+0x3e8>
    80001820:	0017969b          	slliw	a3,a5,0x1
    80001824:	00f686bb          	addw	a3,a3,a5
    80001828:	0016869b          	addiw	a3,a3,1
    8000182c:	00269893          	slli	a7,a3,0x2
    80001830:	011988b3          	add	a7,s3,a7
    80001834:	008787bb          	addw	a5,a5,s0
    80001838:	0008a883          	lw	a7,0(a7)
    8000183c:	00279793          	slli	a5,a5,0x2
    80001840:	00261613          	slli	a2,a2,0x2
    80001844:	00f487b3          	add	a5,s1,a5
    80001848:	00c48633          	add	a2,s1,a2
    8000184c:	0007a303          	lw	t1,0(a5)
    80001850:	00062783          	lw	a5,0(a2)
    80001854:	0658c663          	blt	a7,t0,800018c0 <_Z11suffixArrayPiS_ii+0x3c0>
    80001858:	06588263          	beq	a7,t0,800018bc <_Z11suffixArrayPiS_ii+0x3bc>
    8000185c:	002e1693          	slli	a3,t3,0x2
    80001860:	00dc07b3          	add	a5,s8,a3
    80001864:	001e061b          	addiw	a2,t3,1
    80001868:	01d7a023          	sw	t4,0(a5)
    8000186c:	001f0f1b          	addiw	t5,t5,1
    80001870:	0006079b          	sext.w	a5,a2
    80001874:	13e40263          	beq	s0,t5,80001998 <_Z11suffixArrayPiS_ii+0x498>
    80001878:	00078e13          	mv	t3,a5
    8000187c:	f76e4ce3          	blt	t3,s6,800017f4 <_Z11suffixArrayPiS_ii+0x2f4>
    80001880:	08813083          	ld	ra,136(sp)
    80001884:	08013403          	ld	s0,128(sp)
    80001888:	07813483          	ld	s1,120(sp)
    8000188c:	07013903          	ld	s2,112(sp)
    80001890:	06813983          	ld	s3,104(sp)
    80001894:	06013a03          	ld	s4,96(sp)
    80001898:	05813a83          	ld	s5,88(sp)
    8000189c:	05013b03          	ld	s6,80(sp)
    800018a0:	04813b83          	ld	s7,72(sp)
    800018a4:	04013c03          	ld	s8,64(sp)
    800018a8:	03813c83          	ld	s9,56(sp)
    800018ac:	03013d03          	ld	s10,48(sp)
    800018b0:	02813d83          	ld	s11,40(sp)
    800018b4:	09010113          	addi	sp,sp,144
    800018b8:	00008067          	ret
    800018bc:	fa67c0e3          	blt	a5,t1,8000185c <_Z11suffixArrayPiS_ii+0x35c>
    800018c0:	002e1793          	slli	a5,t3,0x2
    800018c4:	00fc0833          	add	a6,s8,a5
    800018c8:	001e061b          	addiw	a2,t3,1
    800018cc:	00d82023          	sw	a3,0(a6)
    800018d0:	0019091b          	addiw	s2,s2,1
    800018d4:	0006069b          	sext.w	a3,a2
    800018d8:	072a8663          	beq	s5,s2,80001944 <_Z11suffixArrayPiS_ii+0x444>
    800018dc:	00068e13          	mv	t3,a3
    800018e0:	f16e4ae3          	blt	t3,s6,800017f4 <_Z11suffixArrayPiS_ii+0x2f4>
    800018e4:	f9dff06f          	j	80001880 <_Z11suffixArrayPiS_ii+0x380>
    800018e8:	408787bb          	subw	a5,a5,s0
    800018ec:	0017969b          	slliw	a3,a5,0x1
    800018f0:	00f686bb          	addw	a3,a3,a5
    800018f4:	0026869b          	addiw	a3,a3,2
    800018f8:	00269f93          	slli	t6,a3,0x2
    800018fc:	01f98fb3          	add	t6,s3,t6
    80001900:	008608bb          	addw	a7,a2,s0
    80001904:	00178793          	addi	a5,a5,1
    80001908:	000fa603          	lw	a2,0(t6)
    8000190c:	00279793          	slli	a5,a5,0x2
    80001910:	00289893          	slli	a7,a7,0x2
    80001914:	00f487b3          	add	a5,s1,a5
    80001918:	011488b3          	add	a7,s1,a7
    8000191c:	004faf83          	lw	t6,4(t6)
    80001920:	0007a783          	lw	a5,0(a5)
    80001924:	00432303          	lw	t1,4(t1)
    80001928:	0008a883          	lw	a7,0(a7)
    8000192c:	f8564ae3          	blt	a2,t0,800018c0 <_Z11suffixArrayPiS_ii+0x3c0>
    80001930:	f25616e3          	bne	a2,t0,8000185c <_Z11suffixArrayPiS_ii+0x35c>
    80001934:	f86fc6e3          	blt	t6,t1,800018c0 <_Z11suffixArrayPiS_ii+0x3c0>
    80001938:	f26f92e3          	bne	t6,t1,8000185c <_Z11suffixArrayPiS_ii+0x35c>
    8000193c:	f2f8c0e3          	blt	a7,a5,8000185c <_Z11suffixArrayPiS_ii+0x35c>
    80001940:	f81ff06f          	j	800018c0 <_Z11suffixArrayPiS_ii+0x3c0>
    80001944:	128f5063          	bge	t5,s0,80001a64 <_Z11suffixArrayPiS_ii+0x564>
    80001948:	41e3883b          	subw	a6,t2,t5
    8000194c:	02081813          	slli	a6,a6,0x20
    80001950:	02085813          	srli	a6,a6,0x20
    80001954:	01e80833          	add	a6,a6,t5
    80001958:	00478793          	addi	a5,a5,4
    8000195c:	00281813          	slli	a6,a6,0x2
    80001960:	00fc07b3          	add	a5,s8,a5
    80001964:	000f0e1b          	sext.w	t3,t5
    80001968:	00a80833          	add	a6,a6,a0
    8000196c:	00072683          	lw	a3,0(a4)
    80001970:	00470713          	addi	a4,a4,4
    80001974:	00478793          	addi	a5,a5,4
    80001978:	fed7ae23          	sw	a3,-4(a5)
    8000197c:	fee818e3          	bne	a6,a4,8000196c <_Z11suffixArrayPiS_ii+0x46c>
    80001980:	41c60e3b          	subw	t3,a2,t3
    80001984:	019e0e3b          	addw	t3,t3,s9
    80001988:	001e0e1b          	addiw	t3,t3,1
    8000198c:	00040f13          	mv	t5,s0
    80001990:	e76e42e3          	blt	t3,s6,800017f4 <_Z11suffixArrayPiS_ii+0x2f4>
    80001994:	eedff06f          	j	80001880 <_Z11suffixArrayPiS_ii+0x380>
    80001998:	0d595663          	bge	s2,s5,80001a64 <_Z11suffixArrayPiS_ii+0x564>
    8000199c:	412d033b          	subw	t1,s10,s2
    800019a0:	02031313          	slli	t1,t1,0x20
    800019a4:	00813783          	ld	a5,8(sp)
    800019a8:	02035313          	srli	t1,t1,0x20
    800019ac:	01230333          	add	t1,t1,s2
    800019b0:	00468693          	addi	a3,a3,4
    800019b4:	00231313          	slli	t1,t1,0x2
    800019b8:	00dc06b3          	add	a3,s8,a3
    800019bc:	0009091b          	sext.w	s2,s2
    800019c0:	00f30333          	add	t1,t1,a5
    800019c4:	0180006f          	j	800019dc <_Z11suffixArrayPiS_ii+0x4dc>
    800019c8:	0018879b          	addiw	a5,a7,1
    800019cc:	00f6a023          	sw	a5,0(a3)
    800019d0:	00480813          	addi	a6,a6,4
    800019d4:	00468693          	addi	a3,a3,4
    800019d8:	03030a63          	beq	t1,a6,80001a0c <_Z11suffixArrayPiS_ii+0x50c>
    800019dc:	00082703          	lw	a4,0(a6)
    800019e0:	40870e3b          	subw	t3,a4,s0
    800019e4:	0017189b          	slliw	a7,a4,0x1
    800019e8:	001e179b          	slliw	a5,t3,0x1
    800019ec:	00e888bb          	addw	a7,a7,a4
    800019f0:	01c787bb          	addw	a5,a5,t3
    800019f4:	fc874ae3          	blt	a4,s0,800019c8 <_Z11suffixArrayPiS_ii+0x4c8>
    800019f8:	0027879b          	addiw	a5,a5,2
    800019fc:	00f6a023          	sw	a5,0(a3)
    80001a00:	00480813          	addi	a6,a6,4
    80001a04:	00468693          	addi	a3,a3,4
    80001a08:	fd031ae3          	bne	t1,a6,800019dc <_Z11suffixArrayPiS_ii+0x4dc>
    80001a0c:	4126093b          	subw	s2,a2,s2
    80001a10:	01b90e3b          	addw	t3,s2,s11
    80001a14:	001e0e1b          	addiw	t3,t3,1
    80001a18:	000a8913          	mv	s2,s5
    80001a1c:	dd6e4ce3          	blt	t3,s6,800017f4 <_Z11suffixArrayPiS_ii+0x2f4>
    80001a20:	e61ff06f          	j	80001880 <_Z11suffixArrayPiS_ii+0x380>
    80001a24:	000a8613          	mv	a2,s5
    80001a28:	000a0593          	mv	a1,s4
    80001a2c:	00048513          	mv	a0,s1
    80001a30:	01013423          	sd	a6,8(sp)
    80001a34:	acdff0ef          	jal	ra,80001500 <_Z11suffixArrayPiS_ii>
    80001a38:	00813803          	ld	a6,8(sp)
    80001a3c:	000a0693          	mv	a3,s4
    80001a40:	00000713          	li	a4,0
    80001a44:	0006a783          	lw	a5,0(a3)
    80001a48:	0017071b          	addiw	a4,a4,1
    80001a4c:	00468693          	addi	a3,a3,4
    80001a50:	00279793          	slli	a5,a5,0x2
    80001a54:	00f487b3          	add	a5,s1,a5
    80001a58:	00e7a023          	sw	a4,0(a5)
    80001a5c:	ff5714e3          	bne	a4,s5,80001a44 <_Z11suffixArrayPiS_ii+0x544>
    80001a60:	d25ff06f          	j	80001784 <_Z11suffixArrayPiS_ii+0x284>
    80001a64:	002e0e1b          	addiw	t3,t3,2
    80001a68:	d96e46e3          	blt	t3,s6,800017f4 <_Z11suffixArrayPiS_ii+0x2f4>
    80001a6c:	e15ff06f          	j	80001880 <_Z11suffixArrayPiS_ii+0x380>

0000000080001a70 <bench_ssort_prepare>:
    80001a70:	00005797          	auipc	a5,0x5
    80001a74:	9107b783          	ld	a5,-1776(a5) # 80006380 <setting>
    80001a78:	0007a783          	lw	a5,0(a5)
    80001a7c:	fd010113          	addi	sp,sp,-48
    80001a80:	00913c23          	sd	s1,24(sp)
    80001a84:	00100513          	li	a0,1
    80001a88:	00005497          	auipc	s1,0x5
    80001a8c:	86048493          	addi	s1,s1,-1952 # 800062e8 <_ZL1N>
    80001a90:	02113423          	sd	ra,40(sp)
    80001a94:	00f4a023          	sw	a5,0(s1)
    80001a98:	01213823          	sd	s2,16(sp)
    80001a9c:	02813023          	sd	s0,32(sp)
    80001aa0:	01313423          	sd	s3,8(sp)
    80001aa4:	654000ef          	jal	ra,800020f8 <bench_srand>
    80001aa8:	0004a503          	lw	a0,0(s1)
    80001aac:	00005917          	auipc	s2,0x5
    80001ab0:	84490913          	addi	s2,s2,-1980 # 800062f0 <_ZL1s>
    80001ab4:	00a5051b          	addiw	a0,a0,10
    80001ab8:	00251513          	slli	a0,a0,0x2
    80001abc:	5a0000ef          	jal	ra,8000205c <bench_alloc>
    80001ac0:	0004a783          	lw	a5,0(s1)
    80001ac4:	00a93023          	sd	a0,0(s2)
    80001ac8:	00a7851b          	addiw	a0,a5,10
    80001acc:	00251513          	slli	a0,a0,0x2
    80001ad0:	58c000ef          	jal	ra,8000205c <bench_alloc>
    80001ad4:	0004a783          	lw	a5,0(s1)
    80001ad8:	00005717          	auipc	a4,0x5
    80001adc:	82a73023          	sd	a0,-2016(a4) # 800062f8 <_ZL2sa>
    80001ae0:	02f05a63          	blez	a5,80001b14 <bench_ssort_prepare+0xa4>
    80001ae4:	00000413          	li	s0,0
    80001ae8:	01a00993          	li	s3,26
    80001aec:	620000ef          	jal	ra,8000210c <bench_rand>
    80001af0:	0335753b          	remuw	a0,a0,s3
    80001af4:	00093783          	ld	a5,0(s2)
    80001af8:	00241713          	slli	a4,s0,0x2
    80001afc:	0004a683          	lw	a3,0(s1)
    80001b00:	00e787b3          	add	a5,a5,a4
    80001b04:	00140413          	addi	s0,s0,1
    80001b08:	0004071b          	sext.w	a4,s0
    80001b0c:	00a7a023          	sw	a0,0(a5)
    80001b10:	fcd74ee3          	blt	a4,a3,80001aec <bench_ssort_prepare+0x7c>
    80001b14:	02813083          	ld	ra,40(sp)
    80001b18:	02013403          	ld	s0,32(sp)
    80001b1c:	01813483          	ld	s1,24(sp)
    80001b20:	01013903          	ld	s2,16(sp)
    80001b24:	00813983          	ld	s3,8(sp)
    80001b28:	03010113          	addi	sp,sp,48
    80001b2c:	00008067          	ret

0000000080001b30 <bench_ssort_run>:
    80001b30:	01a00693          	li	a3,26
    80001b34:	00004617          	auipc	a2,0x4
    80001b38:	7b462603          	lw	a2,1972(a2) # 800062e8 <_ZL1N>
    80001b3c:	00004597          	auipc	a1,0x4
    80001b40:	7bc5b583          	ld	a1,1980(a1) # 800062f8 <_ZL2sa>
    80001b44:	00004517          	auipc	a0,0x4
    80001b48:	7ac53503          	ld	a0,1964(a0) # 800062f0 <_ZL1s>
    80001b4c:	9b5ff06f          	j	80001500 <_Z11suffixArrayPiS_ii>

0000000080001b50 <bench_ssort_validate>:
    80001b50:	00004597          	auipc	a1,0x4
    80001b54:	7985a583          	lw	a1,1944(a1) # 800062e8 <_ZL1N>
    80001b58:	00004517          	auipc	a0,0x4
    80001b5c:	7a053503          	ld	a0,1952(a0) # 800062f8 <_ZL2sa>
    80001b60:	00259593          	slli	a1,a1,0x2
    80001b64:	ff010113          	addi	sp,sp,-16
    80001b68:	00b505b3          	add	a1,a0,a1
    80001b6c:	00113423          	sd	ra,8(sp)
    80001b70:	5d0000ef          	jal	ra,80002140 <checksum>
    80001b74:	00005797          	auipc	a5,0x5
    80001b78:	80c7b783          	ld	a5,-2036(a5) # 80006380 <setting>
    80001b7c:	0187a783          	lw	a5,24(a5)
    80001b80:	00813083          	ld	ra,8(sp)
    80001b84:	0005051b          	sext.w	a0,a0
    80001b88:	40a78533          	sub	a0,a5,a0
    80001b8c:	00153513          	seqz	a0,a0
    80001b90:	01010113          	addi	sp,sp,16
    80001b94:	00008067          	ret

0000000080001b98 <format_time>:
    80001b98:	3e800613          	li	a2,1000
    80001b9c:	02c55633          	divu	a2,a0,a2
    80001ba0:	fe010113          	addi	sp,sp,-32
    80001ba4:	00813823          	sd	s0,16(sp)
    80001ba8:	3e800413          	li	s0,1000
    80001bac:	00113c23          	sd	ra,24(sp)
    80001bb0:	00913423          	sd	s1,8(sp)
    80001bb4:	3e700793          	li	a5,999
    80001bb8:	02c4043b          	mulw	s0,s0,a2
    80001bbc:	02041413          	slli	s0,s0,0x20
    80001bc0:	02045413          	srli	s0,s0,0x20
    80001bc4:	40850433          	sub	s0,a0,s0
    80001bc8:	0687e663          	bltu	a5,s0,80001c34 <format_time+0x9c>
    80001bcc:	00004497          	auipc	s1,0x4
    80001bd0:	67448493          	addi	s1,s1,1652 # 80006240 <buf.1548>
    80001bd4:	0006061b          	sext.w	a2,a2
    80001bd8:	00003597          	auipc	a1,0x3
    80001bdc:	45858593          	addi	a1,a1,1112 # 80005030 <r+0x150>
    80001be0:	00048513          	mv	a0,s1
    80001be4:	799020ef          	jal	ra,80004b7c <sprintf>
    80001be8:	fff5051b          	addiw	a0,a0,-1
    80001bec:	00a48533          	add	a0,s1,a0
    80001bf0:	02040463          	beqz	s0,80001c18 <format_time+0x80>
    80001bf4:	00a00713          	li	a4,10
    80001bf8:	00900613          	li	a2,9
    80001bfc:	02e477b3          	remu	a5,s0,a4
    80001c00:	fff50513          	addi	a0,a0,-1
    80001c04:	00040693          	mv	a3,s0
    80001c08:	0307879b          	addiw	a5,a5,48
    80001c0c:	00f500a3          	sb	a5,1(a0)
    80001c10:	02e45433          	divu	s0,s0,a4
    80001c14:	fed664e3          	bltu	a2,a3,80001bfc <format_time+0x64>
    80001c18:	01813083          	ld	ra,24(sp)
    80001c1c:	01013403          	ld	s0,16(sp)
    80001c20:	00813483          	ld	s1,8(sp)
    80001c24:	00004517          	auipc	a0,0x4
    80001c28:	61c50513          	addi	a0,a0,1564 # 80006240 <buf.1548>
    80001c2c:	02010113          	addi	sp,sp,32
    80001c30:	00008067          	ret
    80001c34:	01100613          	li	a2,17
    80001c38:	00003597          	auipc	a1,0x3
    80001c3c:	3a858593          	addi	a1,a1,936 # 80004fe0 <r+0x100>
    80001c40:	00003517          	auipc	a0,0x3
    80001c44:	18050513          	addi	a0,a0,384 # 80004dc0 <_etext+0x5c>
    80001c48:	519020ef          	jal	ra,80004960 <printf>
    80001c4c:	00100513          	li	a0,1
    80001c50:	1a1020ef          	jal	ra,800045f0 <halt>

0000000080001c54 <main>:
    80001c54:	f5010113          	addi	sp,sp,-176
    80001c58:	0a113423          	sd	ra,168(sp)
    80001c5c:	0a813023          	sd	s0,160(sp)
    80001c60:	08913c23          	sd	s1,152(sp)
    80001c64:	09213823          	sd	s2,144(sp)
    80001c68:	09313423          	sd	s3,136(sp)
    80001c6c:	09413023          	sd	s4,128(sp)
    80001c70:	07513c23          	sd	s5,120(sp)
    80001c74:	07613823          	sd	s6,112(sp)
    80001c78:	07713423          	sd	s7,104(sp)
    80001c7c:	07813023          	sd	s8,96(sp)
    80001c80:	05913c23          	sd	s9,88(sp)
    80001c84:	05a13823          	sd	s10,80(sp)
    80001c88:	05b13423          	sd	s11,72(sp)
    80001c8c:	30050263          	beqz	a0,80001f90 <main+0x33c>
    80001c90:	00003597          	auipc	a1,0x3
    80001c94:	47058593          	addi	a1,a1,1136 # 80005100 <r+0x220>
    80001c98:	00050413          	mv	s0,a0
    80001c9c:	389020ef          	jal	ra,80004824 <strcmp>
    80001ca0:	2e050863          	beqz	a0,80001f90 <main+0x33c>
    80001ca4:	00003597          	auipc	a1,0x3
    80001ca8:	3d458593          	addi	a1,a1,980 # 80005078 <r+0x198>
    80001cac:	00040513          	mv	a0,s0
    80001cb0:	375020ef          	jal	ra,80004824 <strcmp>
    80001cb4:	00a13023          	sd	a0,0(sp)
    80001cb8:	02050063          	beqz	a0,80001cd8 <main+0x84>
    80001cbc:	00003597          	auipc	a1,0x3
    80001cc0:	3c458593          	addi	a1,a1,964 # 80005080 <r+0x1a0>
    80001cc4:	00040513          	mv	a0,s0
    80001cc8:	35d020ef          	jal	ra,80004824 <strcmp>
    80001ccc:	00100793          	li	a5,1
    80001cd0:	00f13023          	sd	a5,0(sp)
    80001cd4:	32051c63          	bnez	a0,8000200c <main+0x3b8>
    80001cd8:	1d9020ef          	jal	ra,800046b0 <ioe_init>
    80001cdc:	00040593          	mv	a1,s0
    80001ce0:	00003517          	auipc	a0,0x3
    80001ce4:	3f050513          	addi	a0,a0,1008 # 800050d0 <r+0x1f0>
    80001ce8:	479020ef          	jal	ra,80004960 <printf>
    80001cec:	03810593          	addi	a1,sp,56
    80001cf0:	00600513          	li	a0,6
    80001cf4:	219020ef          	jal	ra,8000470c <ioe_read>
    80001cf8:	00013783          	ld	a5,0(sp)
    80001cfc:	00018737          	lui	a4,0x18
    80001d00:	00004b97          	auipc	s7,0x4
    80001d04:	998b8b93          	addi	s7,s7,-1640 # 80005698 <benchmarks>
    80001d08:	00178913          	addi	s2,a5,1
    80001d0c:	03813783          	ld	a5,56(sp)
    80001d10:	00591913          	slli	s2,s2,0x5
    80001d14:	fe090a93          	addi	s5,s2,-32
    80001d18:	02f13023          	sd	a5,32(sp)
    80001d1c:	00100793          	li	a5,1
    80001d20:	00f13823          	sd	a5,16(sp)
    80001d24:	6a070793          	addi	a5,a4,1696 # 186a0 <_entry_offset+0x186a0>
    80001d28:	00004b17          	auipc	s6,0x4
    80001d2c:	000b0b13          	mv	s6,s6
    80001d30:	00000d13          	li	s10,0
    80001d34:	00013c23          	sd	zero,24(sp)
    80001d38:	00004417          	auipc	s0,0x4
    80001d3c:	64040413          	addi	s0,s0,1600 # 80006378 <current>
    80001d40:	00004a17          	auipc	s4,0x4
    80001d44:	640a0a13          	addi	s4,s4,1600 # 80006380 <setting>
    80001d48:	00890913          	addi	s2,s2,8
    80001d4c:	00004d97          	auipc	s11,0x4
    80001d50:	0e4d8d93          	addi	s11,s11,228 # 80005e30 <heap>
    80001d54:	00003997          	auipc	s3,0x3
    80001d58:	3b498993          	addi	s3,s3,948 # 80005108 <r+0x228>
    80001d5c:	00003c97          	auipc	s9,0x3
    80001d60:	3bcc8c93          	addi	s9,s9,956 # 80005118 <r+0x238>
    80001d64:	00003c17          	auipc	s8,0x3
    80001d68:	3ccc0c13          	addi	s8,s8,972 # 80005130 <r+0x250>
    80001d6c:	02f13423          	sd	a5,40(sp)
    80001d70:	0200006f          	j	80001d90 <main+0x13c>
    80001d74:	00098513          	mv	a0,s3
    80001d78:	3e9020ef          	jal	ra,80004960 <printf>
    80001d7c:	000c8593          	mv	a1,s9
    80001d80:	000c0513          	mv	a0,s8
    80001d84:	0a8b8b93          	addi	s7,s7,168
    80001d88:	3d9020ef          	jal	ra,80004960 <printf>
    80001d8c:	116b8a63          	beq	s7,s6,80001ea0 <main+0x24c>
    80001d90:	000db603          	ld	a2,0(s11)
    80001d94:	015b85b3          	add	a1,s7,s5
    80001d98:	008db703          	ld	a4,8(s11)
    80001d9c:	0305b503          	ld	a0,48(a1)
    80001da0:	017905b3          	add	a1,s2,s7
    80001da4:	00ba3023          	sd	a1,0(s4)
    80001da8:	40c70733          	sub	a4,a4,a2
    80001dac:	01743023          	sd	s7,0(s0)
    80001db0:	018bb583          	ld	a1,24(s7)
    80001db4:	020bb603          	ld	a2,32(s7)
    80001db8:	faa76ee3          	bltu	a4,a0,80001d74 <main+0x120>
    80001dbc:	00098513          	mv	a0,s3
    80001dc0:	3a1020ef          	jal	ra,80004960 <printf>
    80001dc4:	00043603          	ld	a2,0(s0)
    80001dc8:	000db703          	ld	a4,0(s11)
    80001dcc:	00004797          	auipc	a5,0x4
    80001dd0:	53478793          	addi	a5,a5,1332 # 80006300 <hbrk>
    80001dd4:	00063603          	ld	a2,0(a2)
    80001dd8:	00770713          	addi	a4,a4,7
    80001ddc:	ff877713          	andi	a4,a4,-8
    80001de0:	00e7b023          	sd	a4,0(a5)
    80001de4:	000600e7          	jalr	a2
    80001de8:	03810593          	addi	a1,sp,56
    80001dec:	00600513          	li	a0,6
    80001df0:	11d020ef          	jal	ra,8000470c <ioe_read>
    80001df4:	00043703          	ld	a4,0(s0)
    80001df8:	03813483          	ld	s1,56(sp)
    80001dfc:	00873703          	ld	a4,8(a4)
    80001e00:	000700e7          	jalr	a4
    80001e04:	03810593          	addi	a1,sp,56
    80001e08:	00600513          	li	a0,6
    80001e0c:	101020ef          	jal	ra,8000470c <ioe_read>
    80001e10:	00043703          	ld	a4,0(s0)
    80001e14:	03813603          	ld	a2,56(sp)
    80001e18:	01073703          	ld	a4,16(a4)
    80001e1c:	409604b3          	sub	s1,a2,s1
    80001e20:	000700e7          	jalr	a4
    80001e24:	1a050463          	beqz	a0,80001fcc <main+0x378>
    80001e28:	00a13423          	sd	a0,8(sp)
    80001e2c:	00003517          	auipc	a0,0x3
    80001e30:	31450513          	addi	a0,a0,788 # 80005140 <r+0x260>
    80001e34:	32d020ef          	jal	ra,80004960 <printf>
    80001e38:	00813703          	ld	a4,8(sp)
    80001e3c:	00177713          	andi	a4,a4,1
    80001e40:	18070c63          	beqz	a4,80001fd8 <main+0x384>
    80001e44:	00003517          	auipc	a0,0x3
    80001e48:	30450513          	addi	a0,a0,772 # 80005148 <r+0x268>
    80001e4c:	315020ef          	jal	ra,80004960 <printf>
    80001e50:	00013423          	sd	zero,8(sp)
    80001e54:	02048663          	beqz	s1,80001e80 <main+0x22c>
    80001e58:	000a3703          	ld	a4,0(s4)
    80001e5c:	02813783          	ld	a5,40(sp)
    80001e60:	01073703          	ld	a4,16(a4)
    80001e64:	02f70733          	mul	a4,a4,a5
    80001e68:	02975733          	divu	a4,a4,s1
    80001e6c:	0007079b          	sext.w	a5,a4
    80001e70:	00f13423          	sd	a5,8(sp)
    80001e74:	01813783          	ld	a5,24(sp)
    80001e78:	00f707bb          	addw	a5,a4,a5
    80001e7c:	00f13c23          	sd	a5,24(sp)
    80001e80:	00003517          	auipc	a0,0x3
    80001e84:	35850513          	addi	a0,a0,856 # 800051d8 <r+0x2f8>
    80001e88:	2d9020ef          	jal	ra,80004960 <printf>
    80001e8c:	00013783          	ld	a5,0(sp)
    80001e90:	10079c63          	bnez	a5,80001fa8 <main+0x354>
    80001e94:	009d0d33          	add	s10,s10,s1
    80001e98:	0a8b8b93          	addi	s7,s7,168
    80001e9c:	ef6b9ae3          	bne	s7,s6,80001d90 <main+0x13c>
    80001ea0:	03810593          	addi	a1,sp,56
    80001ea4:	00600513          	li	a0,6
    80001ea8:	065020ef          	jal	ra,8000470c <ioe_read>
    80001eac:	02013783          	ld	a5,32(sp)
    80001eb0:	03813403          	ld	s0,56(sp)
    80001eb4:	00003517          	auipc	a0,0x3
    80001eb8:	2cc50513          	addi	a0,a0,716 # 80005180 <r+0x2a0>
    80001ebc:	40f40433          	sub	s0,s0,a5
    80001ec0:	2a1020ef          	jal	ra,80004960 <printf>
    80001ec4:	01013783          	ld	a5,16(sp)
    80001ec8:	00003597          	auipc	a1,0x3
    80001ecc:	17858593          	addi	a1,a1,376 # 80005040 <r+0x160>
    80001ed0:	12078063          	beqz	a5,80001ff0 <main+0x39c>
    80001ed4:	00003517          	auipc	a0,0x3
    80001ed8:	2e450513          	addi	a0,a0,740 # 800051b8 <r+0x2d8>
    80001edc:	285020ef          	jal	ra,80004960 <printf>
    80001ee0:	00013703          	ld	a4,0(sp)
    80001ee4:	00100793          	li	a5,1
    80001ee8:	10e7da63          	bge	a5,a4,80001ffc <main+0x3a8>
    80001eec:	01813783          	ld	a5,24(sp)
    80001ef0:	00a00593          	li	a1,10
    80001ef4:	00003517          	auipc	a0,0x3
    80001ef8:	2d450513          	addi	a0,a0,724 # 800051c8 <r+0x2e8>
    80001efc:	02b7d5bb          	divuw	a1,a5,a1
    80001f00:	261020ef          	jal	ra,80004960 <printf>
    80001f04:	000185b7          	lui	a1,0x18
    80001f08:	00003617          	auipc	a2,0x3
    80001f0c:	2d860613          	addi	a2,a2,728 # 800051e0 <r+0x300>
    80001f10:	6a058593          	addi	a1,a1,1696 # 186a0 <_entry_offset+0x186a0>
    80001f14:	00003517          	auipc	a0,0x3
    80001f18:	2e450513          	addi	a0,a0,740 # 800051f8 <r+0x318>
    80001f1c:	245020ef          	jal	ra,80004960 <printf>
    80001f20:	000d0513          	mv	a0,s10
    80001f24:	c75ff0ef          	jal	ra,80001b98 <format_time>
    80001f28:	00050593          	mv	a1,a0
    80001f2c:	00003517          	auipc	a0,0x3
    80001f30:	2f450513          	addi	a0,a0,756 # 80005220 <r+0x340>
    80001f34:	22d020ef          	jal	ra,80004960 <printf>
    80001f38:	00040513          	mv	a0,s0
    80001f3c:	c5dff0ef          	jal	ra,80001b98 <format_time>
    80001f40:	00050593          	mv	a1,a0
    80001f44:	00003517          	auipc	a0,0x3
    80001f48:	2f450513          	addi	a0,a0,756 # 80005238 <r+0x358>
    80001f4c:	215020ef          	jal	ra,80004960 <printf>
    80001f50:	0a813083          	ld	ra,168(sp)
    80001f54:	0a013403          	ld	s0,160(sp)
    80001f58:	09813483          	ld	s1,152(sp)
    80001f5c:	09013903          	ld	s2,144(sp)
    80001f60:	08813983          	ld	s3,136(sp)
    80001f64:	08013a03          	ld	s4,128(sp)
    80001f68:	07813a83          	ld	s5,120(sp)
    80001f6c:	07013b03          	ld	s6,112(sp)
    80001f70:	06813b83          	ld	s7,104(sp)
    80001f74:	06013c03          	ld	s8,96(sp)
    80001f78:	05813c83          	ld	s9,88(sp)
    80001f7c:	05013d03          	ld	s10,80(sp)
    80001f80:	04813d83          	ld	s11,72(sp)
    80001f84:	00000513          	li	a0,0
    80001f88:	0b010113          	addi	sp,sp,176
    80001f8c:	00008067          	ret
    80001f90:	00003517          	auipc	a0,0x3
    80001f94:	0c050513          	addi	a0,a0,192 # 80005050 <r+0x170>
    80001f98:	1c9020ef          	jal	ra,80004960 <printf>
    80001f9c:	00003417          	auipc	s0,0x3
    80001fa0:	09c40413          	addi	s0,s0,156 # 80005038 <r+0x158>
    80001fa4:	d01ff06f          	j	80001ca4 <main+0x50>
    80001fa8:	00048513          	mv	a0,s1
    80001fac:	bedff0ef          	jal	ra,80001b98 <format_time>
    80001fb0:	00813603          	ld	a2,8(sp)
    80001fb4:	00050593          	mv	a1,a0
    80001fb8:	00003517          	auipc	a0,0x3
    80001fbc:	1b050513          	addi	a0,a0,432 # 80005168 <r+0x288>
    80001fc0:	1a1020ef          	jal	ra,80004960 <printf>
    80001fc4:	009d0d33          	add	s10,s10,s1
    80001fc8:	ed1ff06f          	j	80001e98 <main+0x244>
    80001fcc:	00003517          	auipc	a0,0x3
    80001fd0:	28450513          	addi	a0,a0,644 # 80005250 <r+0x370>
    80001fd4:	18d020ef          	jal	ra,80004960 <printf>
    80001fd8:	00003517          	auipc	a0,0x3
    80001fdc:	18050513          	addi	a0,a0,384 # 80005158 <r+0x278>
    80001fe0:	181020ef          	jal	ra,80004960 <printf>
    80001fe4:	00013823          	sd	zero,16(sp)
    80001fe8:	00013423          	sd	zero,8(sp)
    80001fec:	e95ff06f          	j	80001e80 <main+0x22c>
    80001ff0:	00003597          	auipc	a1,0x3
    80001ff4:	05858593          	addi	a1,a1,88 # 80005048 <r+0x168>
    80001ff8:	eddff06f          	j	80001ed4 <main+0x280>
    80001ffc:	00003517          	auipc	a0,0x3
    80002000:	1dc50513          	addi	a0,a0,476 # 800051d8 <r+0x2f8>
    80002004:	15d020ef          	jal	ra,80004960 <printf>
    80002008:	f19ff06f          	j	80001f20 <main+0x2cc>
    8000200c:	00003597          	auipc	a1,0x3
    80002010:	02c58593          	addi	a1,a1,44 # 80005038 <r+0x158>
    80002014:	00040513          	mv	a0,s0
    80002018:	00d020ef          	jal	ra,80004824 <strcmp>
    8000201c:	00200793          	li	a5,2
    80002020:	00f13023          	sd	a5,0(sp)
    80002024:	ca050ae3          	beqz	a0,80001cd8 <main+0x84>
    80002028:	00003597          	auipc	a1,0x3
    8000202c:	06058593          	addi	a1,a1,96 # 80005088 <r+0x1a8>
    80002030:	00040513          	mv	a0,s0
    80002034:	7f0020ef          	jal	ra,80004824 <strcmp>
    80002038:	00300793          	li	a5,3
    8000203c:	00f13023          	sd	a5,0(sp)
    80002040:	c8050ce3          	beqz	a0,80001cd8 <main+0x84>
    80002044:	00040593          	mv	a1,s0
    80002048:	00003517          	auipc	a0,0x3
    8000204c:	04850513          	addi	a0,a0,72 # 80005090 <r+0x1b0>
    80002050:	111020ef          	jal	ra,80004960 <printf>
    80002054:	00100513          	li	a0,1
    80002058:	598020ef          	jal	ra,800045f0 <halt>

000000008000205c <bench_alloc>:
    8000205c:	00004597          	auipc	a1,0x4
    80002060:	2a458593          	addi	a1,a1,676 # 80006300 <hbrk>
    80002064:	0005b683          	ld	a3,0(a1)
    80002068:	00750713          	addi	a4,a0,7
    8000206c:	00004797          	auipc	a5,0x4
    80002070:	dc478793          	addi	a5,a5,-572 # 80005e30 <heap>
    80002074:	ff010113          	addi	sp,sp,-16
    80002078:	ff877713          	andi	a4,a4,-8
    8000207c:	0007b603          	ld	a2,0(a5)
    80002080:	00113423          	sd	ra,8(sp)
    80002084:	00e68733          	add	a4,a3,a4
    80002088:	00e5b023          	sd	a4,0(a1)
    8000208c:	04c76263          	bltu	a4,a2,800020d0 <bench_alloc+0x74>
    80002090:	0087b783          	ld	a5,8(a5)
    80002094:	02f77e63          	bgeu	a4,a5,800020d0 <bench_alloc+0x74>
    80002098:	00068793          	mv	a5,a3
    8000209c:	00d70863          	beq	a4,a3,800020ac <bench_alloc+0x50>
    800020a0:	0007b023          	sd	zero,0(a5)
    800020a4:	00878793          	addi	a5,a5,8
    800020a8:	fef71ce3          	bne	a4,a5,800020a0 <bench_alloc+0x44>
    800020ac:	00004797          	auipc	a5,0x4
    800020b0:	2d47b783          	ld	a5,724(a5) # 80006380 <setting>
    800020b4:	0087b783          	ld	a5,8(a5)
    800020b8:	40c70733          	sub	a4,a4,a2
    800020bc:	02e7ea63          	bltu	a5,a4,800020f0 <bench_alloc+0x94>
    800020c0:	00813083          	ld	ra,8(sp)
    800020c4:	00068513          	mv	a0,a3
    800020c8:	01010113          	addi	sp,sp,16
    800020cc:	00008067          	ret
    800020d0:	0a100613          	li	a2,161
    800020d4:	00003597          	auipc	a1,0x3
    800020d8:	f0c58593          	addi	a1,a1,-244 # 80004fe0 <r+0x100>
    800020dc:	00003517          	auipc	a0,0x3
    800020e0:	ce450513          	addi	a0,a0,-796 # 80004dc0 <_etext+0x5c>
    800020e4:	07d020ef          	jal	ra,80004960 <printf>
    800020e8:	00100513          	li	a0,1
    800020ec:	504020ef          	jal	ra,800045f0 <halt>
    800020f0:	0a500613          	li	a2,165
    800020f4:	fe1ff06f          	j	800020d4 <bench_alloc+0x78>

00000000800020f8 <bench_srand>:
    800020f8:	03151513          	slli	a0,a0,0x31
    800020fc:	03155513          	srli	a0,a0,0x31
    80002100:	00004797          	auipc	a5,0x4
    80002104:	c2a7a423          	sw	a0,-984(a5) # 80005d28 <seed>
    80002108:	00008067          	ret

000000008000210c <bench_rand>:
    8000210c:	00004697          	auipc	a3,0x4
    80002110:	c1c68693          	addi	a3,a3,-996 # 80005d28 <seed>
    80002114:	0006a783          	lw	a5,0(a3)
    80002118:	00034737          	lui	a4,0x34
    8000211c:	3fd7071b          	addiw	a4,a4,1021
    80002120:	02e787bb          	mulw	a5,a5,a4
    80002124:	0026a737          	lui	a4,0x26a
    80002128:	ec37071b          	addiw	a4,a4,-317
    8000212c:	00e787bb          	addw	a5,a5,a4
    80002130:	02179513          	slli	a0,a5,0x21
    80002134:	00f6a023          	sw	a5,0(a3)
    80002138:	03155513          	srli	a0,a0,0x31
    8000213c:	00008067          	ret

0000000080002140 <checksum>:
    80002140:	00450613          	addi	a2,a0,4
    80002144:	00050813          	mv	a6,a0
    80002148:	06b67263          	bgeu	a2,a1,800021ac <checksum+0x6c>
    8000214c:	811ca737          	lui	a4,0x811ca
    80002150:	01000537          	lui	a0,0x1000
    80002154:	dc570713          	addi	a4,a4,-571 # ffffffff811c9dc5 <_end+0xffffffff011badc5>
    80002158:	1935051b          	addiw	a0,a0,403
    8000215c:	00080793          	mv	a5,a6
    80002160:	0007c683          	lbu	a3,0(a5)
    80002164:	00178793          	addi	a5,a5,1
    80002168:	00d74733          	xor	a4,a4,a3
    8000216c:	02e5073b          	mulw	a4,a0,a4
    80002170:	fef618e3          	bne	a2,a5,80002160 <checksum+0x20>
    80002174:	00460613          	addi	a2,a2,4
    80002178:	00480813          	addi	a6,a6,4
    8000217c:	feb660e3          	bltu	a2,a1,8000215c <checksum+0x1c>
    80002180:	00d7151b          	slliw	a0,a4,0xd
    80002184:	00e5073b          	addw	a4,a0,a4
    80002188:	4077551b          	sraiw	a0,a4,0x7
    8000218c:	00a74733          	xor	a4,a4,a0
    80002190:	0037151b          	slliw	a0,a4,0x3
    80002194:	00e5053b          	addw	a0,a0,a4
    80002198:	4115579b          	sraiw	a5,a0,0x11
    8000219c:	00f54533          	xor	a0,a0,a5
    800021a0:	0055179b          	slliw	a5,a0,0x5
    800021a4:	00a7853b          	addw	a0,a5,a0
    800021a8:	00008067          	ret
    800021ac:	a6f00537          	lui	a0,0xa6f00
    800021b0:	79e50513          	addi	a0,a0,1950 # ffffffffa6f0079e <_end+0xffffffff26ef179e>
    800021b4:	00008067          	ret

00000000800021b8 <_ZN5Dinic3DFSEii>:
    800021b8:	00c52783          	lw	a5,12(a0)
    800021bc:	fc010113          	addi	sp,sp,-64
    800021c0:	01413823          	sd	s4,16(sp)
    800021c4:	01513423          	sd	s5,8(sp)
    800021c8:	02113c23          	sd	ra,56(sp)
    800021cc:	02813823          	sd	s0,48(sp)
    800021d0:	02913423          	sd	s1,40(sp)
    800021d4:	03213023          	sd	s2,32(sp)
    800021d8:	01313c23          	sd	s3,24(sp)
    800021dc:	01613023          	sd	s6,0(sp)
    800021e0:	00060a13          	mv	s4,a2
    800021e4:	00060a93          	mv	s5,a2
    800021e8:	0cb78663          	beq	a5,a1,800022b4 <_ZN5Dinic3DFSEii+0xfc>
    800021ec:	00000a93          	li	s5,0
    800021f0:	0c060263          	beqz	a2,800022b4 <_ZN5Dinic3DFSEii+0xfc>
    800021f4:	03053783          	ld	a5,48(a0)
    800021f8:	00259993          	slli	s3,a1,0x2
    800021fc:	fff00713          	li	a4,-1
    80002200:	013787b3          	add	a5,a5,s3
    80002204:	0007a403          	lw	s0,0(a5)
    80002208:	00050913          	mv	s2,a0
    8000220c:	0ae40463          	beq	s0,a4,800022b4 <_ZN5Dinic3DFSEii+0xfc>
    80002210:	fff00b13          	li	s6,-1
    80002214:	0180006f          	j	8000222c <_ZN5Dinic3DFSEii+0x74>
    80002218:	02093783          	ld	a5,32(s2)
    8000221c:	00241413          	slli	s0,s0,0x2
    80002220:	00878433          	add	s0,a5,s0
    80002224:	00042403          	lw	s0,0(s0)
    80002228:	09640663          	beq	s0,s6,800022b4 <_ZN5Dinic3DFSEii+0xfc>
    8000222c:	01093703          	ld	a4,16(s2)
    80002230:	00441493          	slli	s1,s0,0x4
    80002234:	02893783          	ld	a5,40(s2)
    80002238:	009704b3          	add	s1,a4,s1
    8000223c:	0044a583          	lw	a1,4(s1)
    80002240:	01378733          	add	a4,a5,s3
    80002244:	00072703          	lw	a4,0(a4)
    80002248:	00259693          	slli	a3,a1,0x2
    8000224c:	00d787b3          	add	a5,a5,a3
    80002250:	0007a683          	lw	a3,0(a5)
    80002254:	0017079b          	addiw	a5,a4,1
    80002258:	fcd790e3          	bne	a5,a3,80002218 <_ZN5Dinic3DFSEii+0x60>
    8000225c:	0084a603          	lw	a2,8(s1)
    80002260:	00c4a783          	lw	a5,12(s1)
    80002264:	00090513          	mv	a0,s2
    80002268:	40f607bb          	subw	a5,a2,a5
    8000226c:	00078613          	mv	a2,a5
    80002270:	00fa5463          	bge	s4,a5,80002278 <_ZN5Dinic3DFSEii+0xc0>
    80002274:	000a061b          	sext.w	a2,s4
    80002278:	f41ff0ef          	jal	ra,800021b8 <_ZN5Dinic3DFSEii>
    8000227c:	00144793          	xori	a5,s0,1
    80002280:	00479793          	slli	a5,a5,0x4
    80002284:	f8a05ae3          	blez	a0,80002218 <_ZN5Dinic3DFSEii+0x60>
    80002288:	00c4a683          	lw	a3,12(s1)
    8000228c:	01093703          	ld	a4,16(s2)
    80002290:	40aa0a3b          	subw	s4,s4,a0
    80002294:	00a686bb          	addw	a3,a3,a0
    80002298:	00d4a623          	sw	a3,12(s1)
    8000229c:	00f707b3          	add	a5,a4,a5
    800022a0:	00c7a703          	lw	a4,12(a5)
    800022a4:	01550abb          	addw	s5,a0,s5
    800022a8:	40a7053b          	subw	a0,a4,a0
    800022ac:	00a7a623          	sw	a0,12(a5)
    800022b0:	f60a14e3          	bnez	s4,80002218 <_ZN5Dinic3DFSEii+0x60>
    800022b4:	03813083          	ld	ra,56(sp)
    800022b8:	03013403          	ld	s0,48(sp)
    800022bc:	02813483          	ld	s1,40(sp)
    800022c0:	02013903          	ld	s2,32(sp)
    800022c4:	01813983          	ld	s3,24(sp)
    800022c8:	01013a03          	ld	s4,16(sp)
    800022cc:	00013b03          	ld	s6,0(sp)
    800022d0:	000a8513          	mv	a0,s5
    800022d4:	00813a83          	ld	s5,8(sp)
    800022d8:	04010113          	addi	sp,sp,64
    800022dc:	00008067          	ret

00000000800022e0 <bench_dinic_prepare>:
    800022e0:	00004797          	auipc	a5,0x4
    800022e4:	0a07b783          	ld	a5,160(a5) # 80006380 <setting>
    800022e8:	0007a783          	lw	a5,0(a5)
    800022ec:	f9010113          	addi	sp,sp,-112
    800022f0:	05213823          	sd	s2,80(sp)
    800022f4:	00100513          	li	a0,1
    800022f8:	00004917          	auipc	s2,0x4
    800022fc:	01890913          	addi	s2,s2,24 # 80006310 <_ZL1N>
    80002300:	06113423          	sd	ra,104(sp)
    80002304:	00f92023          	sw	a5,0(s2)
    80002308:	04913c23          	sd	s1,88(sp)
    8000230c:	05313423          	sd	s3,72(sp)
    80002310:	05413023          	sd	s4,64(sp)
    80002314:	03513c23          	sd	s5,56(sp)
    80002318:	03613823          	sd	s6,48(sp)
    8000231c:	03713423          	sd	s7,40(sp)
    80002320:	03813023          	sd	s8,32(sp)
    80002324:	06813023          	sd	s0,96(sp)
    80002328:	01913c23          	sd	s9,24(sp)
    8000232c:	01a13823          	sd	s10,16(sp)
    80002330:	01b13423          	sd	s11,8(sp)
    80002334:	dc5ff0ef          	jal	ra,800020f8 <bench_srand>
    80002338:	04800513          	li	a0,72
    8000233c:	00092b83          	lw	s7,0(s2)
    80002340:	d1dff0ef          	jal	ra,8000205c <bench_alloc>
    80002344:	00092783          	lw	a5,0(s2)
    80002348:	00004997          	auipc	s3,0x4
    8000234c:	fc098993          	addi	s3,s3,-64 # 80006308 <_ZL1G>
    80002350:	00050493          	mv	s1,a0
    80002354:	0017879b          	addiw	a5,a5,1
    80002358:	00179b1b          	slliw	s6,a5,0x1
    8000235c:	ffeb079b          	addiw	a5,s6,-2
    80002360:	4017d79b          	sraiw	a5,a5,0x1
    80002364:	02f78a3b          	mulw	s4,a5,a5
    80002368:	0017979b          	slliw	a5,a5,0x1
    8000236c:	00a9b023          	sd	a0,0(s3)
    80002370:	002b1a93          	slli	s5,s6,0x2
    80002374:	001b9c1b          	slliw	s8,s7,0x1
    80002378:	001c0b9b          	addiw	s7,s8,1
    8000237c:	00fa07bb          	addw	a5,s4,a5
    80002380:	00179a1b          	slliw	s4,a5,0x1
    80002384:	004a1513          	slli	a0,s4,0x4
    80002388:	cd5ff0ef          	jal	ra,8000205c <bench_alloc>
    8000238c:	00a4b823          	sd	a0,16(s1)
    80002390:	000a8513          	mv	a0,s5
    80002394:	cc9ff0ef          	jal	ra,8000205c <bench_alloc>
    80002398:	00a4bc23          	sd	a0,24(s1)
    8000239c:	002a1513          	slli	a0,s4,0x2
    800023a0:	cbdff0ef          	jal	ra,8000205c <bench_alloc>
    800023a4:	02a4b023          	sd	a0,32(s1)
    800023a8:	000b0513          	mv	a0,s6
    800023ac:	cb1ff0ef          	jal	ra,8000205c <bench_alloc>
    800023b0:	04a4b023          	sd	a0,64(s1)
    800023b4:	000a8513          	mv	a0,s5
    800023b8:	ca5ff0ef          	jal	ra,8000205c <bench_alloc>
    800023bc:	02a4b423          	sd	a0,40(s1)
    800023c0:	000a8513          	mv	a0,s5
    800023c4:	c99ff0ef          	jal	ra,8000205c <bench_alloc>
    800023c8:	02a4b823          	sd	a0,48(s1)
    800023cc:	000a8513          	mv	a0,s5
    800023d0:	c8dff0ef          	jal	ra,8000205c <bench_alloc>
    800023d4:	02a4bc23          	sd	a0,56(s1)
    800023d8:	0164a023          	sw	s6,0(s1)
    800023dc:	03605863          	blez	s6,8000240c <bench_dinic_prepare+0x12c>
    800023e0:	fffb071b          	addiw	a4,s6,-1
    800023e4:	02071713          	slli	a4,a4,0x20
    800023e8:	0184b783          	ld	a5,24(s1)
    800023ec:	02075713          	srli	a4,a4,0x20
    800023f0:	00170713          	addi	a4,a4,1
    800023f4:	00271713          	slli	a4,a4,0x2
    800023f8:	00f70733          	add	a4,a4,a5
    800023fc:	fff00693          	li	a3,-1
    80002400:	00d7a023          	sw	a3,0(a5)
    80002404:	00478793          	addi	a5,a5,4
    80002408:	fee79ce3          	bne	a5,a4,80002400 <bench_dinic_prepare+0x120>
    8000240c:	00092d03          	lw	s10,0(s2)
    80002410:	0004a223          	sw	zero,4(s1)
    80002414:	25a05e63          	blez	s10,80002670 <bench_dinic_prepare+0x390>
    80002418:	00000b13          	li	s6,0
    8000241c:	00000493          	li	s1,0
    80002420:	00a00a13          	li	s4,10
    80002424:	002b1a93          	slli	s5,s6,0x2
    80002428:	00000c93          	li	s9,0
    8000242c:	0ba05e63          	blez	s10,800024e8 <bench_dinic_prepare+0x208>
    80002430:	0009b403          	ld	s0,0(s3)
    80002434:	cd9ff0ef          	jal	ra,8000210c <bench_rand>
    80002438:	034577bb          	remuw	a5,a0,s4
    8000243c:	019d073b          	addw	a4,s10,s9
    80002440:	00070813          	mv	a6,a4
    80002444:	00092d03          	lw	s10,0(s2)
    80002448:	00271593          	slli	a1,a4,0x2
    8000244c:	001c8c9b          	addiw	s9,s9,1
    80002450:	00078513          	mv	a0,a5
    80002454:	08078863          	beqz	a5,800024e4 <bench_dinic_prepare+0x204>
    80002458:	00442703          	lw	a4,4(s0)
    8000245c:	01043783          	ld	a5,16(s0)
    80002460:	01843603          	ld	a2,24(s0)
    80002464:	00471693          	slli	a3,a4,0x4
    80002468:	00d786b3          	add	a3,a5,a3
    8000246c:	0096a023          	sw	s1,0(a3)
    80002470:	00a6a423          	sw	a0,8(a3)
    80002474:	0106a223          	sw	a6,4(a3)
    80002478:	0006a623          	sw	zero,12(a3)
    8000247c:	01560533          	add	a0,a2,s5
    80002480:	02043683          	ld	a3,32(s0)
    80002484:	00052883          	lw	a7,0(a0)
    80002488:	00271713          	slli	a4,a4,0x2
    8000248c:	00e68733          	add	a4,a3,a4
    80002490:	01172023          	sw	a7,0(a4)
    80002494:	00442883          	lw	a7,4(s0)
    80002498:	00b60733          	add	a4,a2,a1
    8000249c:	0018861b          	addiw	a2,a7,1
    800024a0:	00c42223          	sw	a2,4(s0)
    800024a4:	01152023          	sw	a7,0(a0)
    800024a8:	00442603          	lw	a2,4(s0)
    800024ac:	00461593          	slli	a1,a2,0x4
    800024b0:	00b787b3          	add	a5,a5,a1
    800024b4:	0107a023          	sw	a6,0(a5)
    800024b8:	0097a223          	sw	s1,4(a5)
    800024bc:	0007a423          	sw	zero,8(a5)
    800024c0:	0007a623          	sw	zero,12(a5)
    800024c4:	00072783          	lw	a5,0(a4)
    800024c8:	00261613          	slli	a2,a2,0x2
    800024cc:	00c686b3          	add	a3,a3,a2
    800024d0:	00f6a023          	sw	a5,0(a3)
    800024d4:	00442783          	lw	a5,4(s0)
    800024d8:	0017869b          	addiw	a3,a5,1
    800024dc:	00d42223          	sw	a3,4(s0)
    800024e0:	00f72023          	sw	a5,0(a4)
    800024e4:	f5acc6e3          	blt	s9,s10,80002430 <bench_dinic_prepare+0x150>
    800024e8:	001b0b13          	addi	s6,s6,1 # 80005d29 <seed+0x1>
    800024ec:	000b049b          	sext.w	s1,s6
    800024f0:	f3a4cae3          	blt	s1,s10,80002424 <bench_dinic_prepare+0x144>
    800024f4:	17a05e63          	blez	s10,80002670 <bench_dinic_prepare+0x390>
    800024f8:	002c1b13          	slli	s6,s8,0x2
    800024fc:	002b9a93          	slli	s5,s7,0x2
    80002500:	00000c93          	li	s9,0
    80002504:	00000d13          	li	s10,0
    80002508:	3e800a13          	li	s4,1000
    8000250c:	0009b483          	ld	s1,0(s3)
    80002510:	bfdff0ef          	jal	ra,8000210c <bench_rand>
    80002514:	034577bb          	remuw	a5,a0,s4
    80002518:	002c9813          	slli	a6,s9,0x2
    8000251c:	0009b403          	ld	s0,0(s3)
    80002520:	00092d83          	lw	s11,0(s2)
    80002524:	001c8c93          	addi	s9,s9,1
    80002528:	00078513          	mv	a0,a5
    8000252c:	08078863          	beqz	a5,800025bc <bench_dinic_prepare+0x2dc>
    80002530:	0044a703          	lw	a4,4(s1)
    80002534:	0104b783          	ld	a5,16(s1)
    80002538:	0184b603          	ld	a2,24(s1)
    8000253c:	00471693          	slli	a3,a4,0x4
    80002540:	00d786b3          	add	a3,a5,a3
    80002544:	0186a023          	sw	s8,0(a3)
    80002548:	01a6a223          	sw	s10,4(a3)
    8000254c:	00a6a423          	sw	a0,8(a3)
    80002550:	0006a623          	sw	zero,12(a3)
    80002554:	016605b3          	add	a1,a2,s6
    80002558:	0204b683          	ld	a3,32(s1)
    8000255c:	0005a503          	lw	a0,0(a1)
    80002560:	00271713          	slli	a4,a4,0x2
    80002564:	00e68733          	add	a4,a3,a4
    80002568:	00a72023          	sw	a0,0(a4)
    8000256c:	0044a503          	lw	a0,4(s1)
    80002570:	01060733          	add	a4,a2,a6
    80002574:	0015061b          	addiw	a2,a0,1
    80002578:	00c4a223          	sw	a2,4(s1)
    8000257c:	00a5a023          	sw	a0,0(a1)
    80002580:	0044a603          	lw	a2,4(s1)
    80002584:	00461593          	slli	a1,a2,0x4
    80002588:	00b787b3          	add	a5,a5,a1
    8000258c:	01a7a023          	sw	s10,0(a5)
    80002590:	0187a223          	sw	s8,4(a5)
    80002594:	0007a423          	sw	zero,8(a5)
    80002598:	0007a623          	sw	zero,12(a5)
    8000259c:	00072783          	lw	a5,0(a4)
    800025a0:	00261613          	slli	a2,a2,0x2
    800025a4:	00c686b3          	add	a3,a3,a2
    800025a8:	00f6a023          	sw	a5,0(a3)
    800025ac:	0044a783          	lw	a5,4(s1)
    800025b0:	0017869b          	addiw	a3,a5,1
    800025b4:	00d4a223          	sw	a3,4(s1)
    800025b8:	00f72023          	sw	a5,0(a4)
    800025bc:	b51ff0ef          	jal	ra,8000210c <bench_rand>
    800025c0:	0345773b          	remuw	a4,a0,s4
    800025c4:	01ad87bb          	addw	a5,s11,s10
    800025c8:	00078813          	mv	a6,a5
    800025cc:	00092883          	lw	a7,0(s2)
    800025d0:	00279793          	slli	a5,a5,0x2
    800025d4:	000c8d1b          	sext.w	s10,s9
    800025d8:	00070513          	mv	a0,a4
    800025dc:	08070863          	beqz	a4,8000266c <bench_dinic_prepare+0x38c>
    800025e0:	00442683          	lw	a3,4(s0)
    800025e4:	01043703          	ld	a4,16(s0)
    800025e8:	01843583          	ld	a1,24(s0)
    800025ec:	00469613          	slli	a2,a3,0x4
    800025f0:	00c70633          	add	a2,a4,a2
    800025f4:	01062023          	sw	a6,0(a2)
    800025f8:	01762223          	sw	s7,4(a2)
    800025fc:	00a62423          	sw	a0,8(a2)
    80002600:	00062623          	sw	zero,12(a2)
    80002604:	00f587b3          	add	a5,a1,a5
    80002608:	02043603          	ld	a2,32(s0)
    8000260c:	0007a503          	lw	a0,0(a5)
    80002610:	00269693          	slli	a3,a3,0x2
    80002614:	00d606b3          	add	a3,a2,a3
    80002618:	00a6a023          	sw	a0,0(a3)
    8000261c:	00442503          	lw	a0,4(s0)
    80002620:	015586b3          	add	a3,a1,s5
    80002624:	0015059b          	addiw	a1,a0,1
    80002628:	00b42223          	sw	a1,4(s0)
    8000262c:	00a7a023          	sw	a0,0(a5)
    80002630:	00442583          	lw	a1,4(s0)
    80002634:	00459793          	slli	a5,a1,0x4
    80002638:	00f707b3          	add	a5,a4,a5
    8000263c:	0177a023          	sw	s7,0(a5)
    80002640:	0107a223          	sw	a6,4(a5)
    80002644:	0007a423          	sw	zero,8(a5)
    80002648:	0007a623          	sw	zero,12(a5)
    8000264c:	0006a783          	lw	a5,0(a3)
    80002650:	00259593          	slli	a1,a1,0x2
    80002654:	00b60633          	add	a2,a2,a1
    80002658:	00f62023          	sw	a5,0(a2)
    8000265c:	00442783          	lw	a5,4(s0)
    80002660:	0017871b          	addiw	a4,a5,1
    80002664:	00e42223          	sw	a4,4(s0)
    80002668:	00f6a023          	sw	a5,0(a3)
    8000266c:	eb1d40e3          	blt	s10,a7,8000250c <bench_dinic_prepare+0x22c>
    80002670:	06813083          	ld	ra,104(sp)
    80002674:	06013403          	ld	s0,96(sp)
    80002678:	05813483          	ld	s1,88(sp)
    8000267c:	05013903          	ld	s2,80(sp)
    80002680:	04813983          	ld	s3,72(sp)
    80002684:	04013a03          	ld	s4,64(sp)
    80002688:	03813a83          	ld	s5,56(sp)
    8000268c:	03013b03          	ld	s6,48(sp)
    80002690:	02813b83          	ld	s7,40(sp)
    80002694:	02013c03          	ld	s8,32(sp)
    80002698:	01813c83          	ld	s9,24(sp)
    8000269c:	01013d03          	ld	s10,16(sp)
    800026a0:	00813d83          	ld	s11,8(sp)
    800026a4:	07010113          	addi	sp,sp,112
    800026a8:	00008067          	ret

00000000800026ac <bench_dinic_run>:
    800026ac:	f3010113          	addi	sp,sp,-208
    800026b0:	0c813023          	sd	s0,192(sp)
    800026b4:	00004717          	auipc	a4,0x4
    800026b8:	c5c72703          	lw	a4,-932(a4) # 80006310 <_ZL1N>
    800026bc:	00004417          	auipc	s0,0x4
    800026c0:	c4c43403          	ld	s0,-948(s0) # 80006308 <_ZL1G>
    800026c4:	00171f1b          	slliw	t5,a4,0x1
    800026c8:	04043683          	ld	a3,64(s0)
    800026cc:	03843583          	ld	a1,56(s0)
    800026d0:	02843783          	ld	a5,40(s0)
    800026d4:	01843503          	ld	a0,24(s0)
    800026d8:	09513c23          	sd	s5,152(sp)
    800026dc:	0c113423          	sd	ra,200(sp)
    800026e0:	0a913c23          	sd	s1,184(sp)
    800026e4:	0b213823          	sd	s2,176(sp)
    800026e8:	0b313423          	sd	s3,168(sp)
    800026ec:	0b413023          	sd	s4,160(sp)
    800026f0:	09613823          	sd	s6,144(sp)
    800026f4:	09713423          	sd	s7,136(sp)
    800026f8:	09813023          	sd	s8,128(sp)
    800026fc:	07913c23          	sd	s9,120(sp)
    80002700:	07a13823          	sd	s10,112(sp)
    80002704:	07b13423          	sd	s11,104(sp)
    80002708:	001f061b          	addiw	a2,t5,1
    8000270c:	002f1713          	slli	a4,t5,0x2
    80002710:	01e42423          	sw	t5,8(s0)
    80002714:	00c42623          	sw	a2,12(s0)
    80002718:	00e13023          	sd	a4,0(sp)
    8000271c:	000f0893          	mv	a7,t5
    80002720:	00000813          	li	a6,0
    80002724:	fff00a93          	li	s5,-1
    80002728:	00042703          	lw	a4,0(s0)
    8000272c:	02e05463          	blez	a4,80002754 <bench_dinic_run+0xa8>
    80002730:	fff7071b          	addiw	a4,a4,-1
    80002734:	02071713          	slli	a4,a4,0x20
    80002738:	02075713          	srli	a4,a4,0x20
    8000273c:	00170713          	addi	a4,a4,1
    80002740:	00068613          	mv	a2,a3
    80002744:	00d70733          	add	a4,a4,a3
    80002748:	00060023          	sb	zero,0(a2)
    8000274c:	00160613          	addi	a2,a2,1
    80002750:	fec71ce3          	bne	a4,a2,80002748 <bench_dinic_run+0x9c>
    80002754:	0115a023          	sw	a7,0(a1)
    80002758:	00842703          	lw	a4,8(s0)
    8000275c:	00100613          	li	a2,1
    80002760:	00058e93          	mv	t4,a1
    80002764:	00271713          	slli	a4,a4,0x2
    80002768:	00e78733          	add	a4,a5,a4
    8000276c:	00072023          	sw	zero,0(a4)
    80002770:	00842703          	lw	a4,8(s0)
    80002774:	00100e13          	li	t3,1
    80002778:	00000f93          	li	t6,0
    8000277c:	00e68733          	add	a4,a3,a4
    80002780:	00c70023          	sb	a2,0(a4)
    80002784:	000ea603          	lw	a2,0(t4) # ffffffff80000000 <_end+0xfffffffeffff1000>
    80002788:	001f8f9b          	addiw	t6,t6,1
    8000278c:	00261613          	slli	a2,a2,0x2
    80002790:	00c50733          	add	a4,a0,a2
    80002794:	00072703          	lw	a4,0(a4)
    80002798:	07570a63          	beq	a4,s5,8000280c <bench_dinic_run+0x160>
    8000279c:	01043903          	ld	s2,16(s0)
    800027a0:	02043483          	ld	s1,32(s0)
    800027a4:	00c788b3          	add	a7,a5,a2
    800027a8:	00471313          	slli	t1,a4,0x4
    800027ac:	00690333          	add	t1,s2,t1
    800027b0:	00432603          	lw	a2,4(t1)
    800027b4:	00271713          	slli	a4,a4,0x2
    800027b8:	00e48733          	add	a4,s1,a4
    800027bc:	00c689b3          	add	s3,a3,a2
    800027c0:	0009c283          	lbu	t0,0(s3)
    800027c4:	04029063          	bnez	t0,80002804 <bench_dinic_run+0x158>
    800027c8:	00832a03          	lw	s4,8(t1)
    800027cc:	00c32383          	lw	t2,12(t1)
    800027d0:	00261613          	slli	a2,a2,0x2
    800027d4:	002e1293          	slli	t0,t3,0x2
    800027d8:	00c78633          	add	a2,a5,a2
    800027dc:	005582b3          	add	t0,a1,t0
    800027e0:	0343d263          	bge	t2,s4,80002804 <bench_dinic_run+0x158>
    800027e4:	0008a383          	lw	t2,0(a7)
    800027e8:	00100a13          	li	s4,1
    800027ec:	01498023          	sb	s4,0(s3)
    800027f0:	0013839b          	addiw	t2,t2,1
    800027f4:	00762023          	sw	t2,0(a2)
    800027f8:	00432603          	lw	a2,4(t1)
    800027fc:	001e0e1b          	addiw	t3,t3,1
    80002800:	00c2a023          	sw	a2,0(t0)
    80002804:	00072703          	lw	a4,0(a4)
    80002808:	fb5710e3          	bne	a4,s5,800027a8 <bench_dinic_run+0xfc>
    8000280c:	004e8e93          	addi	t4,t4,4
    80002810:	f7cf9ae3          	bne	t6,t3,80002784 <bench_dinic_run+0xd8>
    80002814:	00c42703          	lw	a4,12(s0)
    80002818:	00e68633          	add	a2,a3,a4
    8000281c:	00064603          	lbu	a2,0(a2)
    80002820:	38060063          	beqz	a2,80002ba0 <bench_dinic_run+0x4f4>
    80002824:	00042603          	lw	a2,0(s0)
    80002828:	02c05863          	blez	a2,80002858 <bench_dinic_run+0x1ac>
    8000282c:	03043883          	ld	a7,48(s0)
    80002830:	00050613          	mv	a2,a0
    80002834:	00000713          	li	a4,0
    80002838:	00062303          	lw	t1,0(a2)
    8000283c:	0017071b          	addiw	a4,a4,1
    80002840:	00460613          	addi	a2,a2,4
    80002844:	0068a023          	sw	t1,0(a7)
    80002848:	00042303          	lw	t1,0(s0)
    8000284c:	00488893          	addi	a7,a7,4
    80002850:	fe6744e3          	blt	a4,t1,80002838 <bench_dinic_run+0x18c>
    80002854:	00c42703          	lw	a4,12(s0)
    80002858:	38ef0663          	beq	t5,a4,80002be4 <bench_dinic_run+0x538>
    8000285c:	03043703          	ld	a4,48(s0)
    80002860:	00013603          	ld	a2,0(sp)
    80002864:	00c70733          	add	a4,a4,a2
    80002868:	00072b83          	lw	s7,0(a4)
    8000286c:	335b8663          	beq	s7,s5,80002b98 <bench_dinic_run+0x4ec>
    80002870:	003f4db7          	lui	s11,0x3f4
    80002874:	00000e93          	li	t4,0
    80002878:	f3fd8d93          	addi	s11,s11,-193 # 3f3f3f <_entry_offset+0x3f3f3f>
    8000287c:	0180006f          	j	80002894 <bench_dinic_run+0x1e8>
    80002880:	02043703          	ld	a4,32(s0)
    80002884:	002b9b93          	slli	s7,s7,0x2
    80002888:	01770bb3          	add	s7,a4,s7
    8000288c:	000bab83          	lw	s7,0(s7)
    80002890:	2f5b8c63          	beq	s7,s5,80002b88 <bench_dinic_run+0x4dc>
    80002894:	01043a03          	ld	s4,16(s0)
    80002898:	004b9b13          	slli	s6,s7,0x4
    8000289c:	00013703          	ld	a4,0(sp)
    800028a0:	016a0b33          	add	s6,s4,s6
    800028a4:	004b2603          	lw	a2,4(s6)
    800028a8:	00e78733          	add	a4,a5,a4
    800028ac:	00072703          	lw	a4,0(a4)
    800028b0:	00261f93          	slli	t6,a2,0x2
    800028b4:	01f786b3          	add	a3,a5,t6
    800028b8:	0006a683          	lw	a3,0(a3)
    800028bc:	0017071b          	addiw	a4,a4,1
    800028c0:	fcd710e3          	bne	a4,a3,80002880 <bench_dinic_run+0x1d4>
    800028c4:	008b2483          	lw	s1,8(s6)
    800028c8:	00cb2703          	lw	a4,12(s6)
    800028cc:	40e4873b          	subw	a4,s1,a4
    800028d0:	00070493          	mv	s1,a4
    800028d4:	00edd463          	bge	s11,a4,800028dc <bench_dinic_run+0x230>
    800028d8:	000d849b          	sext.w	s1,s11
    800028dc:	00c42703          	lw	a4,12(s0)
    800028e0:	34c70663          	beq	a4,a2,80002c2c <bench_dinic_run+0x580>
    800028e4:	f8048ee3          	beqz	s1,80002880 <bench_dinic_run+0x1d4>
    800028e8:	03043703          	ld	a4,48(s0)
    800028ec:	01f70733          	add	a4,a4,t6
    800028f0:	00072c03          	lw	s8,0(a4)
    800028f4:	f95c06e3          	beq	s8,s5,80002880 <bench_dinic_run+0x1d4>
    800028f8:	00048893          	mv	a7,s1
    800028fc:	00000493          	li	s1,0
    80002900:	0240006f          	j	80002924 <bench_dinic_run+0x278>
    80002904:	02043703          	ld	a4,32(s0)
    80002908:	002c1c13          	slli	s8,s8,0x2
    8000290c:	01870c33          	add	s8,a4,s8
    80002910:	000c2c03          	lw	s8,0(s8)
    80002914:	315c0c63          	beq	s8,s5,80002c2c <bench_dinic_run+0x580>
    80002918:	01f78733          	add	a4,a5,t6
    8000291c:	01043a03          	ld	s4,16(s0)
    80002920:	00072683          	lw	a3,0(a4)
    80002924:	004c1713          	slli	a4,s8,0x4
    80002928:	00ea0733          	add	a4,s4,a4
    8000292c:	00472583          	lw	a1,4(a4)
    80002930:	0016869b          	addiw	a3,a3,1
    80002934:	00259293          	slli	t0,a1,0x2
    80002938:	00578633          	add	a2,a5,t0
    8000293c:	00062603          	lw	a2,0(a2)
    80002940:	fcc692e3          	bne	a3,a2,80002904 <bench_dinic_run+0x258>
    80002944:	00872903          	lw	s2,8(a4)
    80002948:	00c72683          	lw	a3,12(a4)
    8000294c:	40d906bb          	subw	a3,s2,a3
    80002950:	00068913          	mv	s2,a3
    80002954:	00d8d463          	bge	a7,a3,8000295c <bench_dinic_run+0x2b0>
    80002958:	0008891b          	sext.w	s2,a7
    8000295c:	00c42683          	lw	a3,12(s0)
    80002960:	2cb68063          	beq	a3,a1,80002c20 <bench_dinic_run+0x574>
    80002964:	fa0900e3          	beqz	s2,80002904 <bench_dinic_run+0x258>
    80002968:	03043683          	ld	a3,48(s0)
    8000296c:	005686b3          	add	a3,a3,t0
    80002970:	0006ac83          	lw	s9,0(a3)
    80002974:	f95c88e3          	beq	s9,s5,80002904 <bench_dinic_run+0x258>
    80002978:	00090313          	mv	t1,s2
    8000297c:	00000913          	li	s2,0
    80002980:	0240006f          	j	800029a4 <bench_dinic_run+0x2f8>
    80002984:	02043683          	ld	a3,32(s0)
    80002988:	002c9c93          	slli	s9,s9,0x2
    8000298c:	01968cb3          	add	s9,a3,s9
    80002990:	000cac83          	lw	s9,0(s9)
    80002994:	295c8663          	beq	s9,s5,80002c20 <bench_dinic_run+0x574>
    80002998:	005786b3          	add	a3,a5,t0
    8000299c:	01043a03          	ld	s4,16(s0)
    800029a0:	0006a603          	lw	a2,0(a3)
    800029a4:	004c9693          	slli	a3,s9,0x4
    800029a8:	00da06b3          	add	a3,s4,a3
    800029ac:	0046a583          	lw	a1,4(a3)
    800029b0:	0016051b          	addiw	a0,a2,1
    800029b4:	00259393          	slli	t2,a1,0x2
    800029b8:	00778633          	add	a2,a5,t2
    800029bc:	00062603          	lw	a2,0(a2)
    800029c0:	fcc512e3          	bne	a0,a2,80002984 <bench_dinic_run+0x2d8>
    800029c4:	0086a983          	lw	s3,8(a3)
    800029c8:	00c6a503          	lw	a0,12(a3)
    800029cc:	40a9853b          	subw	a0,s3,a0
    800029d0:	00050993          	mv	s3,a0
    800029d4:	00a35463          	bge	t1,a0,800029dc <bench_dinic_run+0x330>
    800029d8:	0003099b          	sext.w	s3,t1
    800029dc:	00c42503          	lw	a0,12(s0)
    800029e0:	22b50a63          	beq	a0,a1,80002c14 <bench_dinic_run+0x568>
    800029e4:	fa0980e3          	beqz	s3,80002984 <bench_dinic_run+0x2d8>
    800029e8:	03043583          	ld	a1,48(s0)
    800029ec:	007585b3          	add	a1,a1,t2
    800029f0:	0005ad03          	lw	s10,0(a1)
    800029f4:	f95d08e3          	beq	s10,s5,80002984 <bench_dinic_run+0x2d8>
    800029f8:	00098e13          	mv	t3,s3
    800029fc:	00000993          	li	s3,0
    80002a00:	0240006f          	j	80002a24 <bench_dinic_run+0x378>
    80002a04:	02043583          	ld	a1,32(s0)
    80002a08:	002d1d13          	slli	s10,s10,0x2
    80002a0c:	00778633          	add	a2,a5,t2
    80002a10:	01a58d33          	add	s10,a1,s10
    80002a14:	000d2d03          	lw	s10,0(s10)
    80002a18:	1f5d0e63          	beq	s10,s5,80002c14 <bench_dinic_run+0x568>
    80002a1c:	01043a03          	ld	s4,16(s0)
    80002a20:	00062603          	lw	a2,0(a2)
    80002a24:	004d1593          	slli	a1,s10,0x4
    80002a28:	00ba0a33          	add	s4,s4,a1
    80002a2c:	004a2583          	lw	a1,4(s4)
    80002a30:	0016051b          	addiw	a0,a2,1
    80002a34:	00259613          	slli	a2,a1,0x2
    80002a38:	00c78633          	add	a2,a5,a2
    80002a3c:	00062603          	lw	a2,0(a2)
    80002a40:	fcc512e3          	bne	a0,a2,80002a04 <bench_dinic_run+0x358>
    80002a44:	008a2603          	lw	a2,8(s4)
    80002a48:	00ca2783          	lw	a5,12(s4)
    80002a4c:	00040513          	mv	a0,s0
    80002a50:	40f607bb          	subw	a5,a2,a5
    80002a54:	00078613          	mv	a2,a5
    80002a58:	00fe5463          	bge	t3,a5,80002a60 <bench_dinic_run+0x3b4>
    80002a5c:	000e061b          	sext.w	a2,t3
    80002a60:	05c13c23          	sd	t3,88(sp)
    80002a64:	04613823          	sd	t1,80(sp)
    80002a68:	04713423          	sd	t2,72(sp)
    80002a6c:	04d13023          	sd	a3,64(sp)
    80002a70:	03113c23          	sd	a7,56(sp)
    80002a74:	02513823          	sd	t0,48(sp)
    80002a78:	02e13423          	sd	a4,40(sp)
    80002a7c:	03d13023          	sd	t4,32(sp)
    80002a80:	01f13c23          	sd	t6,24(sp)
    80002a84:	01013823          	sd	a6,16(sp)
    80002a88:	01e13423          	sd	t5,8(sp)
    80002a8c:	f2cff0ef          	jal	ra,800021b8 <_ZN5Dinic3DFSEii>
    80002a90:	001d4593          	xori	a1,s10,1
    80002a94:	00813f03          	ld	t5,8(sp)
    80002a98:	01013803          	ld	a6,16(sp)
    80002a9c:	01813f83          	ld	t6,24(sp)
    80002aa0:	02013e83          	ld	t4,32(sp)
    80002aa4:	02813703          	ld	a4,40(sp)
    80002aa8:	03013283          	ld	t0,48(sp)
    80002aac:	03813883          	ld	a7,56(sp)
    80002ab0:	04013683          	ld	a3,64(sp)
    80002ab4:	04813383          	ld	t2,72(sp)
    80002ab8:	05013303          	ld	t1,80(sp)
    80002abc:	05813e03          	ld	t3,88(sp)
    80002ac0:	00459593          	slli	a1,a1,0x4
    80002ac4:	12a05a63          	blez	a0,80002bf8 <bench_dinic_run+0x54c>
    80002ac8:	00ca2783          	lw	a5,12(s4)
    80002acc:	01043603          	ld	a2,16(s0)
    80002ad0:	40ae0e3b          	subw	t3,t3,a0
    80002ad4:	00a787bb          	addw	a5,a5,a0
    80002ad8:	00fa2623          	sw	a5,12(s4)
    80002adc:	00b605b3          	add	a1,a2,a1
    80002ae0:	00c5aa03          	lw	s4,12(a1)
    80002ae4:	00a989bb          	addw	s3,s3,a0
    80002ae8:	02843783          	ld	a5,40(s0)
    80002aec:	40aa053b          	subw	a0,s4,a0
    80002af0:	00a5a623          	sw	a0,12(a1)
    80002af4:	f00e18e3          	bnez	t3,80002a04 <bench_dinic_run+0x358>
    80002af8:	00c6a503          	lw	a0,12(a3)
    80002afc:	001cc593          	xori	a1,s9,1
    80002b00:	00459593          	slli	a1,a1,0x4
    80002b04:	0135053b          	addw	a0,a0,s3
    80002b08:	00a6a623          	sw	a0,12(a3)
    80002b0c:	00b606b3          	add	a3,a2,a1
    80002b10:	00c6a583          	lw	a1,12(a3)
    80002b14:	4133033b          	subw	t1,t1,s3
    80002b18:	0139093b          	addw	s2,s2,s3
    80002b1c:	413589bb          	subw	s3,a1,s3
    80002b20:	0136a623          	sw	s3,12(a3)
    80002b24:	e60310e3          	bnez	t1,80002984 <bench_dinic_run+0x2d8>
    80002b28:	00c72583          	lw	a1,12(a4)
    80002b2c:	001c4693          	xori	a3,s8,1
    80002b30:	00469693          	slli	a3,a3,0x4
    80002b34:	012585bb          	addw	a1,a1,s2
    80002b38:	00b72623          	sw	a1,12(a4)
    80002b3c:	00d60733          	add	a4,a2,a3
    80002b40:	00c72683          	lw	a3,12(a4)
    80002b44:	412888bb          	subw	a7,a7,s2
    80002b48:	012484bb          	addw	s1,s1,s2
    80002b4c:	4126893b          	subw	s2,a3,s2
    80002b50:	01272623          	sw	s2,12(a4)
    80002b54:	da0898e3          	bnez	a7,80002904 <bench_dinic_run+0x258>
    80002b58:	00cb2683          	lw	a3,12(s6)
    80002b5c:	001bc713          	xori	a4,s7,1
    80002b60:	00471713          	slli	a4,a4,0x4
    80002b64:	009686bb          	addw	a3,a3,s1
    80002b68:	00db2623          	sw	a3,12(s6)
    80002b6c:	00e60633          	add	a2,a2,a4
    80002b70:	00c62703          	lw	a4,12(a2)
    80002b74:	409d8dbb          	subw	s11,s11,s1
    80002b78:	009e8ebb          	addw	t4,t4,s1
    80002b7c:	409704bb          	subw	s1,a4,s1
    80002b80:	00962623          	sw	s1,12(a2)
    80002b84:	ce0d9ee3          	bnez	s11,80002880 <bench_dinic_run+0x1d4>
    80002b88:	04043683          	ld	a3,64(s0)
    80002b8c:	03843583          	ld	a1,56(s0)
    80002b90:	01843503          	ld	a0,24(s0)
    80002b94:	01d8083b          	addw	a6,a6,t4
    80002b98:	00842883          	lw	a7,8(s0)
    80002b9c:	b8dff06f          	j	80002728 <bench_dinic_run+0x7c>
    80002ba0:	0c813083          	ld	ra,200(sp)
    80002ba4:	0c013403          	ld	s0,192(sp)
    80002ba8:	00003797          	auipc	a5,0x3
    80002bac:	7707a623          	sw	a6,1900(a5) # 80006314 <_ZL3ans>
    80002bb0:	0b813483          	ld	s1,184(sp)
    80002bb4:	0b013903          	ld	s2,176(sp)
    80002bb8:	0a813983          	ld	s3,168(sp)
    80002bbc:	0a013a03          	ld	s4,160(sp)
    80002bc0:	09813a83          	ld	s5,152(sp)
    80002bc4:	09013b03          	ld	s6,144(sp)
    80002bc8:	08813b83          	ld	s7,136(sp)
    80002bcc:	08013c03          	ld	s8,128(sp)
    80002bd0:	07813c83          	ld	s9,120(sp)
    80002bd4:	07013d03          	ld	s10,112(sp)
    80002bd8:	06813d83          	ld	s11,104(sp)
    80002bdc:	0d010113          	addi	sp,sp,208
    80002be0:	00008067          	ret
    80002be4:	003f4737          	lui	a4,0x3f4
    80002be8:	f3f7071b          	addiw	a4,a4,-193
    80002bec:	00842883          	lw	a7,8(s0)
    80002bf0:	0107083b          	addw	a6,a4,a6
    80002bf4:	b35ff06f          	j	80002728 <bench_dinic_run+0x7c>
    80002bf8:	02043583          	ld	a1,32(s0)
    80002bfc:	002d1d13          	slli	s10,s10,0x2
    80002c00:	02843783          	ld	a5,40(s0)
    80002c04:	01a58d33          	add	s10,a1,s10
    80002c08:	000d2d03          	lw	s10,0(s10)
    80002c0c:	00778633          	add	a2,a5,t2
    80002c10:	e15d16e3          	bne	s10,s5,80002a1c <bench_dinic_run+0x370>
    80002c14:	d73058e3          	blez	s3,80002984 <bench_dinic_run+0x2d8>
    80002c18:	01043603          	ld	a2,16(s0)
    80002c1c:	eddff06f          	j	80002af8 <bench_dinic_run+0x44c>
    80002c20:	cf2052e3          	blez	s2,80002904 <bench_dinic_run+0x258>
    80002c24:	01043603          	ld	a2,16(s0)
    80002c28:	f01ff06f          	j	80002b28 <bench_dinic_run+0x47c>
    80002c2c:	c4905ae3          	blez	s1,80002880 <bench_dinic_run+0x1d4>
    80002c30:	01043603          	ld	a2,16(s0)
    80002c34:	f25ff06f          	j	80002b58 <bench_dinic_run+0x4ac>

0000000080002c38 <bench_dinic_validate>:
    80002c38:	00003797          	auipc	a5,0x3
    80002c3c:	7487b783          	ld	a5,1864(a5) # 80006380 <setting>
    80002c40:	0187a503          	lw	a0,24(a5)
    80002c44:	00003797          	auipc	a5,0x3
    80002c48:	6d07a783          	lw	a5,1744(a5) # 80006314 <_ZL3ans>
    80002c4c:	40f50533          	sub	a0,a0,a5
    80002c50:	00153513          	seqz	a0,a0
    80002c54:	00008067          	ret

0000000080002c58 <bench_bf_prepare>:
    80002c58:	00003797          	auipc	a5,0x3
    80002c5c:	7287b783          	ld	a5,1832(a5) # 80006380 <setting>
    80002c60:	0007a783          	lw	a5,0(a5)
    80002c64:	fd010113          	addi	sp,sp,-48
    80002c68:	00913c23          	sd	s1,24(sp)
    80002c6c:	00004537          	lui	a0,0x4
    80002c70:	00003497          	auipc	s1,0x3
    80002c74:	6a848493          	addi	s1,s1,1704 # 80006318 <ARR_SIZE>
    80002c78:	02113423          	sd	ra,40(sp)
    80002c7c:	00f4a023          	sw	a5,0(s1)
    80002c80:	01413023          	sd	s4,0(sp)
    80002c84:	00003797          	auipc	a5,0x3
    80002c88:	6a07a223          	sw	zero,1700(a5) # 80006328 <SP>
    80002c8c:	02813023          	sd	s0,32(sp)
    80002c90:	01213823          	sd	s2,16(sp)
    80002c94:	01313423          	sd	s3,8(sp)
    80002c98:	bc4ff0ef          	jal	ra,8000205c <bench_alloc>
    80002c9c:	00050793          	mv	a5,a0
    80002ca0:	40000513          	li	a0,1024
    80002ca4:	00003717          	auipc	a4,0x3
    80002ca8:	66f73e23          	sd	a5,1660(a4) # 80006320 <PROGRAM>
    80002cac:	bb0ff0ef          	jal	ra,8000205c <bench_alloc>
    80002cb0:	00050793          	mv	a5,a0
    80002cb4:	00002537          	lui	a0,0x2
    80002cb8:	00003717          	auipc	a4,0x3
    80002cbc:	66f73c23          	sd	a5,1656(a4) # 80006330 <STACK>
    80002cc0:	b9cff0ef          	jal	ra,8000205c <bench_alloc>
    80002cc4:	0004a783          	lw	a5,0(s1)
    80002cc8:	00003717          	auipc	a4,0x3
    80002ccc:	66a73c23          	sd	a0,1656(a4) # 80006340 <data>
    80002cd0:	00003a17          	auipc	s4,0x3
    80002cd4:	678a0a13          	addi	s4,s4,1656 # 80006348 <input>
    80002cd8:	0017851b          	addiw	a0,a5,1
    80002cdc:	00002797          	auipc	a5,0x2
    80002ce0:	6a478793          	addi	a5,a5,1700 # 80005380 <r+0x4a0>
    80002ce4:	00003717          	auipc	a4,0x3
    80002ce8:	64f73a23          	sd	a5,1620(a4) # 80006338 <code>
    80002cec:	b70ff0ef          	jal	ra,8000205c <bench_alloc>
    80002cf0:	00050793          	mv	a5,a0
    80002cf4:	00001537          	lui	a0,0x1
    80002cf8:	00fa3023          	sd	a5,0(s4)
    80002cfc:	b60ff0ef          	jal	ra,8000205c <bench_alloc>
    80002d00:	00050793          	mv	a5,a0
    80002d04:	00100513          	li	a0,1
    80002d08:	00003717          	auipc	a4,0x3
    80002d0c:	64f73823          	sd	a5,1616(a4) # 80006358 <output>
    80002d10:	00003797          	auipc	a5,0x3
    80002d14:	6407a023          	sw	zero,1600(a5) # 80006350 <noutput>
    80002d18:	be0ff0ef          	jal	ra,800020f8 <bench_srand>
    80002d1c:	0004a783          	lw	a5,0(s1)
    80002d20:	04f05463          	blez	a5,80002d68 <bench_bf_prepare+0x110>
    80002d24:	00000413          	li	s0,0
    80002d28:	00002997          	auipc	s3,0x2
    80002d2c:	71098993          	addi	s3,s3,1808 # 80005438 <r+0x558>
    80002d30:	03e00913          	li	s2,62
    80002d34:	bd8ff0ef          	jal	ra,8000210c <bench_rand>
    80002d38:	0325753b          	remuw	a0,a0,s2
    80002d3c:	000a3783          	ld	a5,0(s4)
    80002d40:	0004a683          	lw	a3,0(s1)
    80002d44:	008787b3          	add	a5,a5,s0
    80002d48:	00140413          	addi	s0,s0,1
    80002d4c:	0004071b          	sext.w	a4,s0
    80002d50:	02051513          	slli	a0,a0,0x20
    80002d54:	02055513          	srli	a0,a0,0x20
    80002d58:	00a98533          	add	a0,s3,a0
    80002d5c:	00054603          	lbu	a2,0(a0) # 1000 <_entry_offset+0x1000>
    80002d60:	00c78023          	sb	a2,0(a5)
    80002d64:	fcd748e3          	blt	a4,a3,80002d34 <bench_bf_prepare+0xdc>
    80002d68:	02813083          	ld	ra,40(sp)
    80002d6c:	02013403          	ld	s0,32(sp)
    80002d70:	01813483          	ld	s1,24(sp)
    80002d74:	01013903          	ld	s2,16(sp)
    80002d78:	00813983          	ld	s3,8(sp)
    80002d7c:	00013a03          	ld	s4,0(sp)
    80002d80:	03010113          	addi	sp,sp,48
    80002d84:	00008067          	ret

0000000080002d88 <bench_bf_run>:
    80002d88:	00003317          	auipc	t1,0x3
    80002d8c:	5b030313          	addi	t1,t1,1456 # 80006338 <code>
    80002d90:	00033583          	ld	a1,0(t1)
    80002d94:	fc010113          	addi	sp,sp,-64
    80002d98:	02813c23          	sd	s0,56(sp)
    80002d9c:	02913823          	sd	s1,48(sp)
    80002da0:	03213423          	sd	s2,40(sp)
    80002da4:	03313023          	sd	s3,32(sp)
    80002da8:	01413c23          	sd	s4,24(sp)
    80002dac:	01513823          	sd	s5,16(sp)
    80002db0:	01613423          	sd	s6,8(sp)
    80002db4:	01713023          	sd	s7,0(sp)
    80002db8:	0005c703          	lbu	a4,0(a1)
    80002dbc:	00003517          	auipc	a0,0x3
    80002dc0:	56c50513          	addi	a0,a0,1388 # 80006328 <SP>
    80002dc4:	00052603          	lw	a2,0(a0)
    80002dc8:	00003697          	auipc	a3,0x3
    80002dcc:	5586b683          	ld	a3,1368(a3) # 80006320 <PROGRAM>
    80002dd0:	38070463          	beqz	a4,80003158 <bench_bf_run+0x3d0>
    80002dd4:	00003897          	auipc	a7,0x3
    80002dd8:	55c8b883          	ld	a7,1372(a7) # 80006330 <STACK>
    80002ddc:	00158593          	addi	a1,a1,1
    80002de0:	00000b13          	li	s6,0
    80002de4:	00000a93          	li	s5,0
    80002de8:	00000793          	li	a5,0
    80002dec:	03200a13          	li	s4,50
    80002df0:	00002817          	auipc	a6,0x2
    80002df4:	68880813          	addi	a6,a6,1672 # 80005478 <r+0x598>
    80002df8:	000019b7          	lui	s3,0x1
    80002dfc:	00800913          	li	s2,8
    80002e00:	00700493          	li	s1,7
    80002e04:	20000413          	li	s0,512
    80002e08:	00600393          	li	t2,6
    80002e0c:	00500293          	li	t0,5
    80002e10:	00400f93          	li	t6,4
    80002e14:	00300f13          	li	t5,3
    80002e18:	00200e93          	li	t4,2
    80002e1c:	00100e13          	li	t3,1
    80002e20:	fd57071b          	addiw	a4,a4,-43
    80002e24:	0ff77713          	andi	a4,a4,255
    80002e28:	fff58b93          	addi	s7,a1,-1
    80002e2c:	00ea6c63          	bltu	s4,a4,80002e44 <bench_bf_run+0xbc>
    80002e30:	00271713          	slli	a4,a4,0x2
    80002e34:	01070733          	add	a4,a4,a6
    80002e38:	00072703          	lw	a4,0(a4)
    80002e3c:	01070733          	add	a4,a4,a6
    80002e40:	00070067          	jr	a4
    80002e44:	0005c703          	lbu	a4,0(a1)
    80002e48:	10070a63          	beqz	a4,80002f5c <bench_bf_run+0x1d4>
    80002e4c:	00158593          	addi	a1,a1,1
    80002e50:	00100b13          	li	s6,1
    80002e54:	fcdff06f          	j	80002e20 <bench_bf_run+0x98>
    80002e58:	2c060e63          	beqz	a2,80003134 <bench_bf_run+0x3ac>
    80002e5c:	fff6061b          	addiw	a2,a2,-1
    80002e60:	02061713          	slli	a4,a2,0x20
    80002e64:	01f75713          	srli	a4,a4,0x1f
    80002e68:	00e88733          	add	a4,a7,a4
    80002e6c:	00075b03          	lhu	s6,0(a4)
    80002e70:	00279713          	slli	a4,a5,0x2
    80002e74:	00e68733          	add	a4,a3,a4
    80002e78:	002b1a93          	slli	s5,s6,0x2
    80002e7c:	01671123          	sh	s6,2(a4)
    80002e80:	01271023          	sh	s2,0(a4)
    80002e84:	01568733          	add	a4,a3,s5
    80002e88:	00f71123          	sh	a5,2(a4)
    80002e8c:	00100a93          	li	s5,1
    80002e90:	0005c703          	lbu	a4,0(a1)
    80002e94:	0017879b          	addiw	a5,a5,1
    80002e98:	03079793          	slli	a5,a5,0x30
    80002e9c:	0307d793          	srli	a5,a5,0x30
    80002ea0:	0a070e63          	beqz	a4,80002f5c <bench_bf_run+0x1d4>
    80002ea4:	fb3794e3          	bne	a5,s3,80002e4c <bench_bf_run+0xc4>
    80002ea8:	000a8463          	beqz	s5,80002eb0 <bench_bf_run+0x128>
    80002eac:	00c52023          	sw	a2,0(a0)
    80002eb0:	00b33023          	sd	a1,0(t1)
    80002eb4:	0006d703          	lhu	a4,0(a3)
    80002eb8:	16070c63          	beqz	a4,80003030 <bench_bf_run+0x2a8>
    80002ebc:	00003e97          	auipc	t4,0x3
    80002ec0:	48ce8e93          	addi	t4,t4,1164 # 80006348 <input>
    80002ec4:	00003e17          	auipc	t3,0x3
    80002ec8:	48ce0e13          	addi	t3,t3,1164 # 80006350 <noutput>
    80002ecc:	000eb803          	ld	a6,0(t4)
    80002ed0:	000e2503          	lw	a0,0(t3)
    80002ed4:	00003597          	auipc	a1,0x3
    80002ed8:	46c5b583          	ld	a1,1132(a1) # 80006340 <data>
    80002edc:	00003397          	auipc	t2,0x3
    80002ee0:	47c3b383          	ld	t2,1148(t2) # 80006358 <output>
    80002ee4:	00068793          	mv	a5,a3
    80002ee8:	00000f13          	li	t5,0
    80002eec:	00000313          	li	t1,0
    80002ef0:	00000413          	li	s0,0
    80002ef4:	00000613          	li	a2,0
    80002ef8:	00800293          	li	t0,8
    80002efc:	00002897          	auipc	a7,0x2
    80002f00:	64888893          	addi	a7,a7,1608 # 80005544 <r+0x664>
    80002f04:	00001fb7          	lui	t6,0x1
    80002f08:	10e2ec63          	bltu	t0,a4,80003020 <bench_bf_run+0x298>
    80002f0c:	00271713          	slli	a4,a4,0x2
    80002f10:	01170733          	add	a4,a4,a7
    80002f14:	00072703          	lw	a4,0(a4)
    80002f18:	01170733          	add	a4,a4,a7
    80002f1c:	00070067          	jr	a4
    80002f20:	00279713          	slli	a4,a5,0x2
    80002f24:	00e68733          	add	a4,a3,a4
    80002f28:	00971023          	sh	s1,0(a4)
    80002f2c:	22860063          	beq	a2,s0,8000314c <bench_bf_run+0x3c4>
    80002f30:	02061713          	slli	a4,a2,0x20
    80002f34:	01f75713          	srli	a4,a4,0x1f
    80002f38:	00e88733          	add	a4,a7,a4
    80002f3c:	00f71023          	sh	a5,0(a4)
    80002f40:	0005c703          	lbu	a4,0(a1)
    80002f44:	0017879b          	addiw	a5,a5,1
    80002f48:	03079793          	slli	a5,a5,0x30
    80002f4c:	0016061b          	addiw	a2,a2,1
    80002f50:	00100a93          	li	s5,1
    80002f54:	0307d793          	srli	a5,a5,0x30
    80002f58:	f40716e3          	bnez	a4,80002ea4 <bench_bf_run+0x11c>
    80002f5c:	000a8463          	beqz	s5,80002f64 <bench_bf_run+0x1dc>
    80002f60:	00c52023          	sw	a2,0(a0)
    80002f64:	00052703          	lw	a4,0(a0)
    80002f68:	00b33023          	sd	a1,0(t1)
    80002f6c:	f40714e3          	bnez	a4,80002eb4 <bench_bf_run+0x12c>
    80002f70:	00001737          	lui	a4,0x1
    80002f74:	f4e780e3          	beq	a5,a4,80002eb4 <bench_bf_run+0x12c>
    80002f78:	00279793          	slli	a5,a5,0x2
    80002f7c:	00f687b3          	add	a5,a3,a5
    80002f80:	00079023          	sh	zero,0(a5)
    80002f84:	0006d703          	lhu	a4,0(a3)
    80002f88:	f2071ae3          	bnez	a4,80002ebc <bench_bf_run+0x134>
    80002f8c:	0a40006f          	j	80003030 <bench_bf_run+0x2a8>
    80002f90:	00279713          	slli	a4,a5,0x2
    80002f94:	00e68733          	add	a4,a3,a4
    80002f98:	01c71023          	sh	t3,0(a4) # 1000 <_entry_offset+0x1000>
    80002f9c:	ef5ff06f          	j	80002e90 <bench_bf_run+0x108>
    80002fa0:	00279713          	slli	a4,a5,0x2
    80002fa4:	00e68733          	add	a4,a3,a4
    80002fa8:	01d71023          	sh	t4,0(a4)
    80002fac:	ee5ff06f          	j	80002e90 <bench_bf_run+0x108>
    80002fb0:	00279713          	slli	a4,a5,0x2
    80002fb4:	00e68733          	add	a4,a3,a4
    80002fb8:	00571023          	sh	t0,0(a4)
    80002fbc:	ed5ff06f          	j	80002e90 <bench_bf_run+0x108>
    80002fc0:	00279713          	slli	a4,a5,0x2
    80002fc4:	00e68733          	add	a4,a3,a4
    80002fc8:	01f71023          	sh	t6,0(a4)
    80002fcc:	ec5ff06f          	j	80002e90 <bench_bf_run+0x108>
    80002fd0:	00279713          	slli	a4,a5,0x2
    80002fd4:	00e68733          	add	a4,a3,a4
    80002fd8:	00771023          	sh	t2,0(a4)
    80002fdc:	eb5ff06f          	j	80002e90 <bench_bf_run+0x108>
    80002fe0:	00279713          	slli	a4,a5,0x2
    80002fe4:	00e68733          	add	a4,a3,a4
    80002fe8:	01e71023          	sh	t5,0(a4)
    80002fec:	ea5ff06f          	j	80002e90 <bench_bf_run+0x108>
    80002ff0:	02061713          	slli	a4,a2,0x20
    80002ff4:	01f75713          	srli	a4,a4,0x1f
    80002ff8:	00e58733          	add	a4,a1,a4
    80002ffc:	00075703          	lhu	a4,0(a4)
    80003000:	08070863          	beqz	a4,80003090 <bench_bf_run+0x308>
    80003004:	0027d403          	lhu	s0,2(a5)
    80003008:	0014041b          	addiw	s0,s0,1
    8000300c:	02041793          	slli	a5,s0,0x20
    80003010:	01e7d793          	srli	a5,a5,0x1e
    80003014:	00f687b3          	add	a5,a3,a5
    80003018:	0007d703          	lhu	a4,0(a5)
    8000301c:	ee0716e3          	bnez	a4,80002f08 <bench_bf_run+0x180>
    80003020:	00030463          	beqz	t1,80003028 <bench_bf_run+0x2a0>
    80003024:	00ae2023          	sw	a0,0(t3)
    80003028:	000f0463          	beqz	t5,80003030 <bench_bf_run+0x2a8>
    8000302c:	010eb023          	sd	a6,0(t4)
    80003030:	03813403          	ld	s0,56(sp)
    80003034:	03013483          	ld	s1,48(sp)
    80003038:	02813903          	ld	s2,40(sp)
    8000303c:	02013983          	ld	s3,32(sp)
    80003040:	01813a03          	ld	s4,24(sp)
    80003044:	01013a83          	ld	s5,16(sp)
    80003048:	00813b03          	ld	s6,8(sp)
    8000304c:	00013b83          	ld	s7,0(sp)
    80003050:	04010113          	addi	sp,sp,64
    80003054:	00008067          	ret
    80003058:	02061713          	slli	a4,a2,0x20
    8000305c:	01f75713          	srli	a4,a4,0x1f
    80003060:	00e58733          	add	a4,a1,a4
    80003064:	00075703          	lhu	a4,0(a4)
    80003068:	02071463          	bnez	a4,80003090 <bench_bf_run+0x308>
    8000306c:	0027d403          	lhu	s0,2(a5)
    80003070:	f99ff06f          	j	80003008 <bench_bf_run+0x280>
    80003074:	00084703          	lbu	a4,0(a6)
    80003078:	02061793          	slli	a5,a2,0x20
    8000307c:	01f7d793          	srli	a5,a5,0x1f
    80003080:	00f587b3          	add	a5,a1,a5
    80003084:	00e79023          	sh	a4,0(a5)
    80003088:	00180813          	addi	a6,a6,1
    8000308c:	00100f13          	li	t5,1
    80003090:	0014041b          	addiw	s0,s0,1
    80003094:	02041793          	slli	a5,s0,0x20
    80003098:	01e7d793          	srli	a5,a5,0x1e
    8000309c:	00f687b3          	add	a5,a3,a5
    800030a0:	0007d703          	lhu	a4,0(a5)
    800030a4:	e60712e3          	bnez	a4,80002f08 <bench_bf_run+0x180>
    800030a8:	f79ff06f          	j	80003020 <bench_bf_run+0x298>
    800030ac:	02061793          	slli	a5,a2,0x20
    800030b0:	01f7d793          	srli	a5,a5,0x1f
    800030b4:	00f587b3          	add	a5,a1,a5
    800030b8:	0007d703          	lhu	a4,0(a5)
    800030bc:	fff7071b          	addiw	a4,a4,-1
    800030c0:	00e79023          	sh	a4,0(a5)
    800030c4:	fcdff06f          	j	80003090 <bench_bf_run+0x308>
    800030c8:	02061793          	slli	a5,a2,0x20
    800030cc:	01f7d793          	srli	a5,a5,0x1f
    800030d0:	00f587b3          	add	a5,a1,a5
    800030d4:	0007d703          	lhu	a4,0(a5)
    800030d8:	00a387b3          	add	a5,t2,a0
    800030dc:	00100313          	li	t1,1
    800030e0:	00e78023          	sb	a4,0(a5)
    800030e4:	0015051b          	addiw	a0,a0,1
    800030e8:	fa9ff06f          	j	80003090 <bench_bf_run+0x308>
    800030ec:	02061793          	slli	a5,a2,0x20
    800030f0:	01f7d793          	srli	a5,a5,0x1f
    800030f4:	00f587b3          	add	a5,a1,a5
    800030f8:	0007d703          	lhu	a4,0(a5)
    800030fc:	0017071b          	addiw	a4,a4,1
    80003100:	00e79023          	sh	a4,0(a5)
    80003104:	f8dff06f          	j	80003090 <bench_bf_run+0x308>
    80003108:	fff6061b          	addiw	a2,a2,-1
    8000310c:	0014041b          	addiw	s0,s0,1
    80003110:	02041793          	slli	a5,s0,0x20
    80003114:	01e7d793          	srli	a5,a5,0x1e
    80003118:	00f687b3          	add	a5,a3,a5
    8000311c:	0007d703          	lhu	a4,0(a5)
    80003120:	f00700e3          	beqz	a4,80003020 <bench_bf_run+0x298>
    80003124:	dff662e3          	bltu	a2,t6,80002f08 <bench_bf_run+0x180>
    80003128:	ef9ff06f          	j	80003020 <bench_bf_run+0x298>
    8000312c:	0016061b          	addiw	a2,a2,1
    80003130:	fddff06f          	j	8000310c <bench_bf_run+0x384>
    80003134:	000a8663          	beqz	s5,80003140 <bench_bf_run+0x3b8>
    80003138:	00003797          	auipc	a5,0x3
    8000313c:	1e07a823          	sw	zero,496(a5) # 80006328 <SP>
    80003140:	d60b0ae3          	beqz	s6,80002eb4 <bench_bf_run+0x12c>
    80003144:	01733023          	sd	s7,0(t1)
    80003148:	d6dff06f          	j	80002eb4 <bench_bf_run+0x12c>
    8000314c:	fe0a8ae3          	beqz	s5,80003140 <bench_bf_run+0x3b8>
    80003150:	00c52023          	sw	a2,0(a0)
    80003154:	fedff06f          	j	80003140 <bench_bf_run+0x3b8>
    80003158:	00068793          	mv	a5,a3
    8000315c:	e20602e3          	beqz	a2,80002f80 <bench_bf_run+0x1f8>
    80003160:	d55ff06f          	j	80002eb4 <bench_bf_run+0x12c>

0000000080003164 <bench_bf_validate>:
    80003164:	ff010113          	addi	sp,sp,-16
    80003168:	00813023          	sd	s0,0(sp)
    8000316c:	00003417          	auipc	s0,0x3
    80003170:	1e440413          	addi	s0,s0,484 # 80006350 <noutput>
    80003174:	00042583          	lw	a1,0(s0)
    80003178:	00003517          	auipc	a0,0x3
    8000317c:	1e053503          	ld	a0,480(a0) # 80006358 <output>
    80003180:	00113423          	sd	ra,8(sp)
    80003184:	00b505b3          	add	a1,a0,a1
    80003188:	fb9fe0ef          	jal	ra,80002140 <checksum>
    8000318c:	00042683          	lw	a3,0(s0)
    80003190:	00003717          	auipc	a4,0x3
    80003194:	18872703          	lw	a4,392(a4) # 80006318 <ARR_SIZE>
    80003198:	00e68c63          	beq	a3,a4,800031b0 <bench_bf_validate+0x4c>
    8000319c:	00813083          	ld	ra,8(sp)
    800031a0:	00013403          	ld	s0,0(sp)
    800031a4:	00000513          	li	a0,0
    800031a8:	01010113          	addi	sp,sp,16
    800031ac:	00008067          	ret
    800031b0:	00003717          	auipc	a4,0x3
    800031b4:	1d073703          	ld	a4,464(a4) # 80006380 <setting>
    800031b8:	0005079b          	sext.w	a5,a0
    800031bc:	01872503          	lw	a0,24(a4)
    800031c0:	00813083          	ld	ra,8(sp)
    800031c4:	00013403          	ld	s0,0(sp)
    800031c8:	40f50533          	sub	a0,a0,a5
    800031cc:	00153513          	seqz	a0,a0
    800031d0:	01010113          	addi	sp,sp,16
    800031d4:	00008067          	ret

00000000800031d8 <bench_15pz_prepare>:
    800031d8:	00008067          	ret

00000000800031dc <bench_15pz_validate>:
    800031dc:	00003797          	auipc	a5,0x3
    800031e0:	1a47b783          	ld	a5,420(a5) # 80006380 <setting>
    800031e4:	0187a503          	lw	a0,24(a5)
    800031e8:	00003797          	auipc	a5,0x3
    800031ec:	1787a783          	lw	a5,376(a5) # 80006360 <_ZL3ans>
    800031f0:	40f50533          	sub	a0,a0,a5
    800031f4:	00153513          	seqz	a0,a0
    800031f8:	00008067          	ret

00000000800031fc <_ZN8N_puzzleILi4EEC1Ev>:
    800031fc:	f6010113          	addi	sp,sp,-160
    80003200:	05813823          	sd	s8,80(sp)
    80003204:	08113c23          	sd	ra,152(sp)
    80003208:	08813823          	sd	s0,144(sp)
    8000320c:	08913423          	sd	s1,136(sp)
    80003210:	09213023          	sd	s2,128(sp)
    80003214:	07313c23          	sd	s3,120(sp)
    80003218:	07413823          	sd	s4,112(sp)
    8000321c:	07513423          	sd	s5,104(sp)
    80003220:	07613023          	sd	s6,96(sp)
    80003224:	05713c23          	sd	s7,88(sp)
    80003228:	05913423          	sd	s9,72(sp)
    8000322c:	00100793          	li	a5,1
    80003230:	00f50023          	sb	a5,0(a0)
    80003234:	00050c13          	mv	s8,a0
    80003238:	000501a3          	sb	zero,3(a0)
    8000323c:	00010713          	mv	a4,sp
    80003240:	00000793          	li	a5,0
    80003244:	01000693          	li	a3,16
    80003248:	00f72023          	sw	a5,0(a4)
    8000324c:	0017879b          	addiw	a5,a5,1
    80003250:	00470713          	addi	a4,a4,4
    80003254:	fed79ae3          	bne	a5,a3,80003248 <_ZN8N_puzzleILi4EEC1Ev+0x4c>
    80003258:	03c10a13          	addi	s4,sp,60
    8000325c:	000c0413          	mv	s0,s8
    80003260:	00000993          	li	s3,0
    80003264:	00000c93          	li	s9,0
    80003268:	00400913          	li	s2,4
    8000326c:	ff000a93          	li	s5,-16
    80003270:	000a0b93          	mv	s7,s4
    80003274:	00000b13          	li	s6,0
    80003278:	0109849b          	addiw	s1,s3,16
    8000327c:	e91fe0ef          	jal	ra,8000210c <bench_rand>
    80003280:	4164863b          	subw	a2,s1,s6
    80003284:	02c5763b          	remuw	a2,a0,a2
    80003288:	04010793          	addi	a5,sp,64
    8000328c:	000b071b          	sext.w	a4,s6
    80003290:	01640833          	add	a6,s0,s6
    80003294:	00261613          	slli	a2,a2,0x2
    80003298:	00c787b3          	add	a5,a5,a2
    8000329c:	fc07a503          	lw	a0,-64(a5)
    800032a0:	fff5079b          	addiw	a5,a0,-1
    800032a4:	41f7d69b          	sraiw	a3,a5,0x1f
    800032a8:	01e6d59b          	srliw	a1,a3,0x1e
    800032ac:	00f587bb          	addw	a5,a1,a5
    800032b0:	0037f693          	andi	a3,a5,3
    800032b4:	40b686bb          	subw	a3,a3,a1
    800032b8:	4027d79b          	sraiw	a5,a5,0x2
    800032bc:	419787bb          	subw	a5,a5,s9
    800032c0:	40e6873b          	subw	a4,a3,a4
    800032c4:	41f7d59b          	sraiw	a1,a5,0x1f
    800032c8:	41f7569b          	sraiw	a3,a4,0x1f
    800032cc:	00f5c7b3          	xor	a5,a1,a5
    800032d0:	00e6c733          	xor	a4,a3,a4
    800032d4:	40b787bb          	subw	a5,a5,a1
    800032d8:	40d7073b          	subw	a4,a4,a3
    800032dc:	00a80223          	sb	a0,4(a6)
    800032e0:	00e787bb          	addw	a5,a5,a4
    800032e4:	0a051463          	bnez	a0,8000338c <_ZN8N_puzzleILi4EEC1Ev+0x190>
    800032e8:	019c00a3          	sb	s9,1(s8)
    800032ec:	016c0123          	sb	s6,2(s8)
    800032f0:	000ba783          	lw	a5,0(s7)
    800032f4:	04010713          	addi	a4,sp,64
    800032f8:	00c70633          	add	a2,a4,a2
    800032fc:	001b0b13          	addi	s6,s6,1
    80003300:	fcf62023          	sw	a5,-64(a2)
    80003304:	ffcb8b93          	addi	s7,s7,-4
    80003308:	f72b1ae3          	bne	s6,s2,8000327c <_ZN8N_puzzleILi4EEC1Ev+0x80>
    8000330c:	ffc9899b          	addiw	s3,s3,-4
    80003310:	001c8c9b          	addiw	s9,s9,1
    80003314:	ff0a0a13          	addi	s4,s4,-16
    80003318:	00440413          	addi	s0,s0,4
    8000331c:	f5599ae3          	bne	s3,s5,80003270 <_ZN8N_puzzleILi4EEC1Ev+0x74>
    80003320:	000c2a23          	sw	zero,20(s8)
    80003324:	004c0613          	addi	a2,s8,4
    80003328:	014c0513          	addi	a0,s8,20
    8000332c:	00000713          	li	a4,0
    80003330:	7b500593          	li	a1,1973
    80003334:	ffc60793          	addi	a5,a2,-4
    80003338:	02e5873b          	mulw	a4,a1,a4
    8000333c:	00478683          	lb	a3,4(a5)
    80003340:	00178793          	addi	a5,a5,1
    80003344:	00d7073b          	addw	a4,a4,a3
    80003348:	fec798e3          	bne	a5,a2,80003338 <_ZN8N_puzzleILi4EEC1Ev+0x13c>
    8000334c:	00478613          	addi	a2,a5,4
    80003350:	fec512e3          	bne	a0,a2,80003334 <_ZN8N_puzzleILi4EEC1Ev+0x138>
    80003354:	09813083          	ld	ra,152(sp)
    80003358:	09013403          	ld	s0,144(sp)
    8000335c:	00ec2a23          	sw	a4,20(s8)
    80003360:	08813483          	ld	s1,136(sp)
    80003364:	08013903          	ld	s2,128(sp)
    80003368:	07813983          	ld	s3,120(sp)
    8000336c:	07013a03          	ld	s4,112(sp)
    80003370:	06813a83          	ld	s5,104(sp)
    80003374:	06013b03          	ld	s6,96(sp)
    80003378:	05813b83          	ld	s7,88(sp)
    8000337c:	05013c03          	ld	s8,80(sp)
    80003380:	04813c83          	ld	s9,72(sp)
    80003384:	0a010113          	addi	sp,sp,160
    80003388:	00008067          	ret
    8000338c:	003c4703          	lbu	a4,3(s8)
    80003390:	00e787bb          	addw	a5,a5,a4
    80003394:	00fc01a3          	sb	a5,3(s8)
    80003398:	f59ff06f          	j	800032f0 <_ZN8N_puzzleILi4EEC1Ev+0xf4>

000000008000339c <_ZN8N_puzzleILi4EEC1EPi>:
    8000339c:	fe010113          	addi	sp,sp,-32
    800033a0:	00100793          	li	a5,1
    800033a4:	00010e93          	mv	t4,sp
    800033a8:	00f50023          	sb	a5,0(a0)
    800033ac:	00813c23          	sd	s0,24(sp)
    800033b0:	000501a3          	sb	zero,3(a0)
    800033b4:	01010f13          	addi	t5,sp,16
    800033b8:	000e8793          	mv	a5,t4
    800033bc:	00078023          	sb	zero,0(a5)
    800033c0:	00178793          	addi	a5,a5,1
    800033c4:	ffe79ce3          	bne	a5,t5,800033bc <_ZN8N_puzzleILi4EEC1EPi+0x20>
    800033c8:	00050f93          	mv	t6,a0
    800033cc:	00000e13          	li	t3,0
    800033d0:	00100393          	li	t2,1
    800033d4:	00400293          	li	t0,4
    800033d8:	00058313          	mv	t1,a1
    800033dc:	00000613          	li	a2,0
    800033e0:	00032803          	lw	a6,0(t1)
    800033e4:	0006071b          	sext.w	a4,a2
    800033e8:	00cf8433          	add	s0,t6,a2
    800033ec:	fff8079b          	addiw	a5,a6,-1
    800033f0:	41f7d69b          	sraiw	a3,a5,0x1f
    800033f4:	01e6d89b          	srliw	a7,a3,0x1e
    800033f8:	00f887bb          	addw	a5,a7,a5
    800033fc:	0037f693          	andi	a3,a5,3
    80003400:	411686bb          	subw	a3,a3,a7
    80003404:	40e6873b          	subw	a4,a3,a4
    80003408:	41f7569b          	sraiw	a3,a4,0x1f
    8000340c:	4027d79b          	sraiw	a5,a5,0x2
    80003410:	41c787bb          	subw	a5,a5,t3
    80003414:	00e6c733          	xor	a4,a3,a4
    80003418:	41f7d89b          	sraiw	a7,a5,0x1f
    8000341c:	40d7073b          	subw	a4,a4,a3
    80003420:	01010693          	addi	a3,sp,16
    80003424:	00f8c7b3          	xor	a5,a7,a5
    80003428:	010686b3          	add	a3,a3,a6
    8000342c:	411787bb          	subw	a5,a5,a7
    80003430:	01040223          	sb	a6,4(s0)
    80003434:	fe768823          	sb	t2,-16(a3)
    80003438:	00e787bb          	addw	a5,a5,a4
    8000343c:	06081e63          	bnez	a6,800034b8 <_ZN8N_puzzleILi4EEC1EPi+0x11c>
    80003440:	01c500a3          	sb	t3,1(a0)
    80003444:	00c50123          	sb	a2,2(a0)
    80003448:	00160613          	addi	a2,a2,1
    8000344c:	00430313          	addi	t1,t1,4
    80003450:	f85618e3          	bne	a2,t0,800033e0 <_ZN8N_puzzleILi4EEC1EPi+0x44>
    80003454:	001e0e1b          	addiw	t3,t3,1
    80003458:	01058593          	addi	a1,a1,16
    8000345c:	004f8f93          	addi	t6,t6,4 # 1004 <_entry_offset+0x1004>
    80003460:	f65e1ce3          	bne	t3,t0,800033d8 <_ZN8N_puzzleILi4EEC1EPi+0x3c>
    80003464:	000ec783          	lbu	a5,0(t4)
    80003468:	001e8e93          	addi	t4,t4,1
    8000346c:	04078e63          	beqz	a5,800034c8 <_ZN8N_puzzleILi4EEC1EPi+0x12c>
    80003470:	ffee9ae3          	bne	t4,t5,80003464 <_ZN8N_puzzleILi4EEC1EPi+0xc8>
    80003474:	00052a23          	sw	zero,20(a0)
    80003478:	00450613          	addi	a2,a0,4
    8000347c:	01450813          	addi	a6,a0,20
    80003480:	00000713          	li	a4,0
    80003484:	7b500593          	li	a1,1973
    80003488:	ffc60793          	addi	a5,a2,-4
    8000348c:	02e5873b          	mulw	a4,a1,a4
    80003490:	00478683          	lb	a3,4(a5)
    80003494:	00178793          	addi	a5,a5,1
    80003498:	00d7073b          	addw	a4,a4,a3
    8000349c:	fec798e3          	bne	a5,a2,8000348c <_ZN8N_puzzleILi4EEC1EPi+0xf0>
    800034a0:	00478613          	addi	a2,a5,4
    800034a4:	fec812e3          	bne	a6,a2,80003488 <_ZN8N_puzzleILi4EEC1EPi+0xec>
    800034a8:	01813403          	ld	s0,24(sp)
    800034ac:	00e52a23          	sw	a4,20(a0)
    800034b0:	02010113          	addi	sp,sp,32
    800034b4:	00008067          	ret
    800034b8:	00354703          	lbu	a4,3(a0)
    800034bc:	00e787bb          	addw	a5,a5,a4
    800034c0:	00f501a3          	sb	a5,3(a0)
    800034c4:	f85ff06f          	j	80003448 <_ZN8N_puzzleILi4EEC1EPi+0xac>
    800034c8:	01813403          	ld	s0,24(sp)
    800034cc:	00050023          	sb	zero,0(a0)
    800034d0:	02010113          	addi	sp,sp,32
    800034d4:	00008067          	ret

00000000800034d8 <_ZNK8N_puzzleILi4EEeqERKS0_>:
    800034d8:	00050713          	mv	a4,a0
    800034dc:	00054503          	lbu	a0,0(a0)
    800034e0:	04050863          	beqz	a0,80003530 <_ZNK8N_puzzleILi4EEeqERKS0_+0x58>
    800034e4:	0005c503          	lbu	a0,0(a1)
    800034e8:	04050463          	beqz	a0,80003530 <_ZNK8N_puzzleILi4EEeqERKS0_+0x58>
    800034ec:	0145a683          	lw	a3,20(a1)
    800034f0:	01472783          	lw	a5,20(a4)
    800034f4:	02f69c63          	bne	a3,a5,8000352c <_ZNK8N_puzzleILi4EEeqERKS0_+0x54>
    800034f8:	00800693          	li	a3,8
    800034fc:	01800893          	li	a7,24
    80003500:	ffc68793          	addi	a5,a3,-4
    80003504:	00f70833          	add	a6,a4,a5
    80003508:	00f58633          	add	a2,a1,a5
    8000350c:	00084803          	lbu	a6,0(a6)
    80003510:	00064603          	lbu	a2,0(a2)
    80003514:	00178793          	addi	a5,a5,1
    80003518:	00c81a63          	bne	a6,a2,8000352c <_ZNK8N_puzzleILi4EEeqERKS0_+0x54>
    8000351c:	fed794e3          	bne	a5,a3,80003504 <_ZNK8N_puzzleILi4EEeqERKS0_+0x2c>
    80003520:	00468693          	addi	a3,a3,4
    80003524:	fd169ee3          	bne	a3,a7,80003500 <_ZNK8N_puzzleILi4EEeqERKS0_+0x28>
    80003528:	00008067          	ret
    8000352c:	00000513          	li	a0,0
    80003530:	00008067          	ret

0000000080003534 <_ZNK14Updatable_heapI8N_puzzleILi4EEE7pointerERKS1_.isra.0>:
    80003534:	00064783          	lbu	a5,0(a2)
    80003538:	fe010113          	addi	sp,sp,-32
    8000353c:	00913423          	sd	s1,8(sp)
    80003540:	00113c23          	sd	ra,24(sp)
    80003544:	00813823          	sd	s0,16(sp)
    80003548:	00060493          	mv	s1,a2
    8000354c:	00078e63          	beqz	a5,80003568 <_ZNK14Updatable_heapI8N_puzzleILi4EEE7pointerERKS1_.isra.0+0x34>
    80003550:	01462783          	lw	a5,20(a2)
    80003554:	fff5051b          	addiw	a0,a0,-1
    80003558:	00a7f533          	and	a0,a5,a0
    8000355c:	02051793          	slli	a5,a0,0x20
    80003560:	01d7d793          	srli	a5,a5,0x1d
    80003564:	00f585b3          	add	a1,a1,a5
    80003568:	0005b403          	ld	s0,0(a1)
    8000356c:	00041863          	bnez	s0,8000357c <_ZNK14Updatable_heapI8N_puzzleILi4EEE7pointerERKS1_.isra.0+0x48>
    80003570:	01c0006f          	j	8000358c <_ZNK14Updatable_heapI8N_puzzleILi4EEE7pointerERKS1_.isra.0+0x58>
    80003574:	01843403          	ld	s0,24(s0)
    80003578:	00040a63          	beqz	s0,8000358c <_ZNK14Updatable_heapI8N_puzzleILi4EEE7pointerERKS1_.isra.0+0x58>
    8000357c:	00040513          	mv	a0,s0
    80003580:	00048593          	mv	a1,s1
    80003584:	f55ff0ef          	jal	ra,800034d8 <_ZNK8N_puzzleILi4EEeqERKS0_>
    80003588:	fe0506e3          	beqz	a0,80003574 <_ZNK14Updatable_heapI8N_puzzleILi4EEE7pointerERKS1_.isra.0+0x40>
    8000358c:	01813083          	ld	ra,24(sp)
    80003590:	00040513          	mv	a0,s0
    80003594:	01013403          	ld	s0,16(sp)
    80003598:	00813483          	ld	s1,8(sp)
    8000359c:	02010113          	addi	sp,sp,32
    800035a0:	00008067          	ret

00000000800035a4 <_ZN14Updatable_heapI8N_puzzleILi4EEE12percolate_upEi>:
    800035a4:	00100793          	li	a5,1
    800035a8:	06f58463          	beq	a1,a5,80003610 <_ZN14Updatable_heapI8N_puzzleILi4EEE12percolate_upEi+0x6c>
    800035ac:	01053883          	ld	a7,16(a0)
    800035b0:	00359793          	slli	a5,a1,0x3
    800035b4:	00100e93          	li	t4,1
    800035b8:	00f887b3          	add	a5,a7,a5
    800035bc:	0007b603          	ld	a2,0(a5)
    800035c0:	01c0006f          	j	800035dc <_ZN14Updatable_heapI8N_puzzleILi4EEE12percolate_upEi+0x38>
    800035c4:	0106b023          	sd	a6,0(a3)
    800035c8:	00c73023          	sd	a2,0(a4)
    800035cc:	0006b703          	ld	a4,0(a3)
    800035d0:	02f62023          	sw	a5,32(a2)
    800035d4:	02a72023          	sw	a0,32(a4)
    800035d8:	03d58c63          	beq	a1,t4,80003610 <_ZN14Updatable_heapI8N_puzzleILi4EEE12percolate_upEi+0x6c>
    800035dc:	01f5d79b          	srliw	a5,a1,0x1f
    800035e0:	00b787bb          	addw	a5,a5,a1
    800035e4:	4017d79b          	sraiw	a5,a5,0x1
    800035e8:	00058513          	mv	a0,a1
    800035ec:	0007859b          	sext.w	a1,a5
    800035f0:	00359713          	slli	a4,a1,0x3
    800035f4:	00e88733          	add	a4,a7,a4
    800035f8:	00073803          	ld	a6,0(a4)
    800035fc:	02862303          	lw	t1,40(a2)
    80003600:	00351693          	slli	a3,a0,0x3
    80003604:	02882e03          	lw	t3,40(a6)
    80003608:	00d886b3          	add	a3,a7,a3
    8000360c:	fbc34ce3          	blt	t1,t3,800035c4 <_ZN14Updatable_heapI8N_puzzleILi4EEE12percolate_upEi+0x20>
    80003610:	00008067          	ret

0000000080003614 <_ZN14Updatable_heapI8N_puzzleILi4EEE4pushERKS1_i>:
    80003614:	fd010113          	addi	sp,sp,-48
    80003618:	01313423          	sd	s3,8(sp)
    8000361c:	00052983          	lw	s3,0(a0)
    80003620:	00913c23          	sd	s1,24(sp)
    80003624:	00058493          	mv	s1,a1
    80003628:	00853583          	ld	a1,8(a0)
    8000362c:	02813023          	sd	s0,32(sp)
    80003630:	01213823          	sd	s2,16(sp)
    80003634:	00050413          	mv	s0,a0
    80003638:	00060913          	mv	s2,a2
    8000363c:	00098513          	mv	a0,s3
    80003640:	00048613          	mv	a2,s1
    80003644:	02113423          	sd	ra,40(sp)
    80003648:	eedff0ef          	jal	ra,80003534 <_ZNK14Updatable_heapI8N_puzzleILi4EEE7pointerERKS1_.isra.0>
    8000364c:	04050263          	beqz	a0,80003690 <_ZN14Updatable_heapI8N_puzzleILi4EEE4pushERKS1_i+0x7c>
    80003650:	02c54783          	lbu	a5,44(a0)
    80003654:	02079063          	bnez	a5,80003674 <_ZN14Updatable_heapI8N_puzzleILi4EEE4pushERKS1_i+0x60>
    80003658:	00054703          	lbu	a4,0(a0)
    8000365c:	04000793          	li	a5,64
    80003660:	00070463          	beqz	a4,80003668 <_ZN14Updatable_heapI8N_puzzleILi4EEE4pushERKS1_i+0x54>
    80003664:	00350783          	lb	a5,3(a0)
    80003668:	02852703          	lw	a4,40(a0)
    8000366c:	00f907bb          	addw	a5,s2,a5
    80003670:	16e7cc63          	blt	a5,a4,800037e8 <_ZN14Updatable_heapI8N_puzzleILi4EEE4pushERKS1_i+0x1d4>
    80003674:	02813083          	ld	ra,40(sp)
    80003678:	02013403          	ld	s0,32(sp)
    8000367c:	01813483          	ld	s1,24(sp)
    80003680:	01013903          	ld	s2,16(sp)
    80003684:	00813983          	ld	s3,8(sp)
    80003688:	03010113          	addi	sp,sp,48
    8000368c:	00008067          	ret
    80003690:	01842783          	lw	a5,24(s0)
    80003694:	1af9c263          	blt	s3,a5,80003838 <_ZN14Updatable_heapI8N_puzzleILi4EEE4pushERKS1_i+0x224>
    80003698:	0017879b          	addiw	a5,a5,1
    8000369c:	00f42c23          	sw	a5,24(s0)
    800036a0:	03800513          	li	a0,56
    800036a4:	9b9fe0ef          	jal	ra,8000205c <bench_alloc>
    800036a8:	0004c803          	lbu	a6,0(s1)
    800036ac:	00843683          	ld	a3,8(s0)
    800036b0:	00000713          	li	a4,0
    800036b4:	12081663          	bnez	a6,800037e0 <_ZN14Updatable_heapI8N_puzzleILi4EEE4pushERKS1_i+0x1cc>
    800036b8:	00042603          	lw	a2,0(s0)
    800036bc:	01842883          	lw	a7,24(s0)
    800036c0:	00448793          	addi	a5,s1,4
    800036c4:	fff6061b          	addiw	a2,a2,-1
    800036c8:	00c77733          	and	a4,a4,a2
    800036cc:	02071713          	slli	a4,a4,0x20
    800036d0:	01d75713          	srli	a4,a4,0x1d
    800036d4:	00e68733          	add	a4,a3,a4
    800036d8:	00073303          	ld	t1,0(a4)
    800036dc:	01050023          	sb	a6,0(a0)
    800036e0:	0014c683          	lbu	a3,1(s1)
    800036e4:	00450713          	addi	a4,a0,4
    800036e8:	01448593          	addi	a1,s1,20
    800036ec:	00d500a3          	sb	a3,1(a0)
    800036f0:	0024c683          	lbu	a3,2(s1)
    800036f4:	00d50123          	sb	a3,2(a0)
    800036f8:	00348603          	lb	a2,3(s1)
    800036fc:	00c501a3          	sb	a2,3(a0)
    80003700:	0144a683          	lw	a3,20(s1)
    80003704:	00d52a23          	sw	a3,20(a0)
    80003708:	00078683          	lb	a3,0(a5)
    8000370c:	00478793          	addi	a5,a5,4
    80003710:	00470713          	addi	a4,a4,4
    80003714:	fed70e23          	sb	a3,-4(a4)
    80003718:	ffd78683          	lb	a3,-3(a5)
    8000371c:	fed70ea3          	sb	a3,-3(a4)
    80003720:	ffe78683          	lb	a3,-2(a5)
    80003724:	fed70f23          	sb	a3,-2(a4)
    80003728:	fff78683          	lb	a3,-1(a5)
    8000372c:	fed70fa3          	sb	a3,-1(a4)
    80003730:	fcb79ce3          	bne	a5,a1,80003708 <_ZN14Updatable_heapI8N_puzzleILi4EEE4pushERKS1_i+0xf4>
    80003734:	00653c23          	sd	t1,24(a0)
    80003738:	03152023          	sw	a7,32(a0)
    8000373c:	03252223          	sw	s2,36(a0)
    80003740:	0c080863          	beqz	a6,80003810 <_ZN14Updatable_heapI8N_puzzleILi4EEE4pushERKS1_i+0x1fc>
    80003744:	02050623          	sb	zero,44(a0)
    80003748:	0004c703          	lbu	a4,0(s1)
    8000374c:	0126093b          	addw	s2,a2,s2
    80003750:	03252423          	sw	s2,40(a0)
    80003754:	02053823          	sd	zero,48(a0)
    80003758:	00843683          	ld	a3,8(s0)
    8000375c:	00000793          	li	a5,0
    80003760:	00070463          	beqz	a4,80003768 <_ZN14Updatable_heapI8N_puzzleILi4EEE4pushERKS1_i+0x154>
    80003764:	0144a783          	lw	a5,20(s1)
    80003768:	00042603          	lw	a2,0(s0)
    8000376c:	01842583          	lw	a1,24(s0)
    80003770:	01043703          	ld	a4,16(s0)
    80003774:	fff6061b          	addiw	a2,a2,-1
    80003778:	00c7f7b3          	and	a5,a5,a2
    8000377c:	02079793          	slli	a5,a5,0x20
    80003780:	01d7d793          	srli	a5,a5,0x1d
    80003784:	00f687b3          	add	a5,a3,a5
    80003788:	00359693          	slli	a3,a1,0x3
    8000378c:	00a7b023          	sd	a0,0(a5)
    80003790:	00d707b3          	add	a5,a4,a3
    80003794:	00a7b023          	sd	a0,0(a5)
    80003798:	00040513          	mv	a0,s0
    8000379c:	e09ff0ef          	jal	ra,800035a4 <_ZN14Updatable_heapI8N_puzzleILi4EEE12percolate_upEi>
    800037a0:	01842703          	lw	a4,24(s0)
    800037a4:	01c42783          	lw	a5,28(s0)
    800037a8:	0007069b          	sext.w	a3,a4
    800037ac:	0007861b          	sext.w	a2,a5
    800037b0:	02d64263          	blt	a2,a3,800037d4 <_ZN14Updatable_heapI8N_puzzleILi4EEE4pushERKS1_i+0x1c0>
    800037b4:	00f42e23          	sw	a5,28(s0)
    800037b8:	02813083          	ld	ra,40(sp)
    800037bc:	02013403          	ld	s0,32(sp)
    800037c0:	01813483          	ld	s1,24(sp)
    800037c4:	01013903          	ld	s2,16(sp)
    800037c8:	00813983          	ld	s3,8(sp)
    800037cc:	03010113          	addi	sp,sp,48
    800037d0:	00008067          	ret
    800037d4:	00070793          	mv	a5,a4
    800037d8:	00f42e23          	sw	a5,28(s0)
    800037dc:	fddff06f          	j	800037b8 <_ZN14Updatable_heapI8N_puzzleILi4EEE4pushERKS1_i+0x1a4>
    800037e0:	0144a703          	lw	a4,20(s1)
    800037e4:	ed5ff06f          	j	800036b8 <_ZN14Updatable_heapI8N_puzzleILi4EEE4pushERKS1_i+0xa4>
    800037e8:	02052583          	lw	a1,32(a0)
    800037ec:	02f52423          	sw	a5,40(a0)
    800037f0:	00040513          	mv	a0,s0
    800037f4:	02013403          	ld	s0,32(sp)
    800037f8:	02813083          	ld	ra,40(sp)
    800037fc:	01813483          	ld	s1,24(sp)
    80003800:	01013903          	ld	s2,16(sp)
    80003804:	00813983          	ld	s3,8(sp)
    80003808:	03010113          	addi	sp,sp,48
    8000380c:	d99ff06f          	j	800035a4 <_ZN14Updatable_heapI8N_puzzleILi4EEE12percolate_upEi>
    80003810:	02050623          	sb	zero,44(a0)
    80003814:	0004c703          	lbu	a4,0(s1)
    80003818:	04000613          	li	a2,64
    8000381c:	0126093b          	addw	s2,a2,s2
    80003820:	03252423          	sw	s2,40(a0)
    80003824:	02053823          	sd	zero,48(a0)
    80003828:	00843683          	ld	a3,8(s0)
    8000382c:	00000793          	li	a5,0
    80003830:	f2070ce3          	beqz	a4,80003768 <_ZN14Updatable_heapI8N_puzzleILi4EEE4pushERKS1_i+0x154>
    80003834:	f31ff06f          	j	80003764 <_ZN14Updatable_heapI8N_puzzleILi4EEE4pushERKS1_i+0x150>
    80003838:	09800613          	li	a2,152
    8000383c:	00002597          	auipc	a1,0x2
    80003840:	d2c58593          	addi	a1,a1,-724 # 80005568 <r+0x688>
    80003844:	00001517          	auipc	a0,0x1
    80003848:	57c50513          	addi	a0,a0,1404 # 80004dc0 <_etext+0x5c>
    8000384c:	114010ef          	jal	ra,80004960 <printf>
    80003850:	00100513          	li	a0,1
    80003854:	59d000ef          	jal	ra,800045f0 <halt>

0000000080003858 <_ZN14Updatable_heapI8N_puzzleILi4EEE14percolate_downEv>:
    80003858:	01852783          	lw	a5,24(a0)
    8000385c:	00200713          	li	a4,2
    80003860:	0ef75263          	bge	a4,a5,80003944 <_ZN14Updatable_heapI8N_puzzleILi4EEE14percolate_downEv+0xec>
    80003864:	01053603          	ld	a2,16(a0)
    80003868:	00100293          	li	t0,1
    8000386c:	02c0006f          	j	80003898 <_ZN14Updatable_heapI8N_puzzleILi4EEE14percolate_downEv+0x40>
    80003870:	0deec863          	blt	t4,t5,80003940 <_ZN14Updatable_heapI8N_puzzleILi4EEE14percolate_downEv+0xe8>
    80003874:	0107b023          	sd	a6,0(a5)
    80003878:	00b6b023          	sd	a1,0(a3)
    8000387c:	0007b783          	ld	a5,0(a5)
    80003880:	0255a023          	sw	t0,32(a1)
    80003884:	000f829b          	sext.w	t0,t6
    80003888:	03f7a023          	sw	t6,32(a5)
    8000388c:	01852783          	lw	a5,24(a0)
    80003890:	0012971b          	slliw	a4,t0,0x1
    80003894:	06f75263          	bge	a4,a5,800038f8 <_ZN14Updatable_heapI8N_puzzleILi4EEE14percolate_downEv+0xa0>
    80003898:	00371793          	slli	a5,a4,0x3
    8000389c:	00329693          	slli	a3,t0,0x3
    800038a0:	00f60333          	add	t1,a2,a5
    800038a4:	00d606b3          	add	a3,a2,a3
    800038a8:	0006b803          	ld	a6,0(a3)
    800038ac:	00033883          	ld	a7,0(t1)
    800038b0:	00878793          	addi	a5,a5,8
    800038b4:	00f607b3          	add	a5,a2,a5
    800038b8:	0007b583          	ld	a1,0(a5)
    800038bc:	02882e83          	lw	t4,40(a6)
    800038c0:	0288ae03          	lw	t3,40(a7)
    800038c4:	0285af03          	lw	t5,40(a1)
    800038c8:	00170f9b          	addiw	t6,a4,1
    800038cc:	fbcec2e3          	blt	t4,t3,80003870 <_ZN14Updatable_heapI8N_puzzleILi4EEE14percolate_downEv+0x18>
    800038d0:	fbee52e3          	bge	t3,t5,80003874 <_ZN14Updatable_heapI8N_puzzleILi4EEE14percolate_downEv+0x1c>
    800038d4:	01033023          	sd	a6,0(t1)
    800038d8:	0116b023          	sd	a7,0(a3)
    800038dc:	00033783          	ld	a5,0(t1)
    800038e0:	0258a023          	sw	t0,32(a7)
    800038e4:	00070293          	mv	t0,a4
    800038e8:	02e7a023          	sw	a4,32(a5)
    800038ec:	01852783          	lw	a5,24(a0)
    800038f0:	0012971b          	slliw	a4,t0,0x1
    800038f4:	faf742e3          	blt	a4,a5,80003898 <_ZN14Updatable_heapI8N_puzzleILi4EEE14percolate_downEv+0x40>
    800038f8:	00f70463          	beq	a4,a5,80003900 <_ZN14Updatable_heapI8N_puzzleILi4EEE14percolate_downEv+0xa8>
    800038fc:	00008067          	ret
    80003900:	01053683          	ld	a3,16(a0)
    80003904:	00329613          	slli	a2,t0,0x3
    80003908:	00371793          	slli	a5,a4,0x3
    8000390c:	00f687b3          	add	a5,a3,a5
    80003910:	00c686b3          	add	a3,a3,a2
    80003914:	0006b583          	ld	a1,0(a3)
    80003918:	0007b603          	ld	a2,0(a5)
    8000391c:	0285a503          	lw	a0,40(a1)
    80003920:	02862803          	lw	a6,40(a2)
    80003924:	fca85ce3          	bge	a6,a0,800038fc <_ZN14Updatable_heapI8N_puzzleILi4EEE14percolate_downEv+0xa4>
    80003928:	00b7b023          	sd	a1,0(a5)
    8000392c:	00c6b023          	sd	a2,0(a3)
    80003930:	0007b783          	ld	a5,0(a5)
    80003934:	02562023          	sw	t0,32(a2)
    80003938:	02e7a023          	sw	a4,32(a5)
    8000393c:	00008067          	ret
    80003940:	00008067          	ret
    80003944:	00200713          	li	a4,2
    80003948:	00100293          	li	t0,1
    8000394c:	faf718e3          	bne	a4,a5,800038fc <_ZN14Updatable_heapI8N_puzzleILi4EEE14percolate_downEv+0xa4>
    80003950:	fb1ff06f          	j	80003900 <_ZN14Updatable_heapI8N_puzzleILi4EEE14percolate_downEv+0xa8>

0000000080003954 <bench_15pz_run>:
    80003954:	ed010113          	addi	sp,sp,-304
    80003958:	03810513          	addi	a0,sp,56
    8000395c:	12113423          	sd	ra,296(sp)
    80003960:	12813023          	sd	s0,288(sp)
    80003964:	10913c23          	sd	s1,280(sp)
    80003968:	11213823          	sd	s2,272(sp)
    8000396c:	11313423          	sd	s3,264(sp)
    80003970:	11413023          	sd	s4,256(sp)
    80003974:	0f513c23          	sd	s5,248(sp)
    80003978:	0f613823          	sd	s6,240(sp)
    8000397c:	0f713423          	sd	s7,232(sp)
    80003980:	0f813023          	sd	s8,224(sp)
    80003984:	0d913c23          	sd	s9,216(sp)
    80003988:	0da13823          	sd	s10,208(sp)
    8000398c:	0db13423          	sd	s11,200(sp)
    80003990:	86dff0ef          	jal	ra,800031fc <_ZN8N_puzzleILi4EEC1Ev>
    80003994:	00003797          	auipc	a5,0x3
    80003998:	9ec7b783          	ld	a5,-1556(a5) # 80006380 <setting>
    8000399c:	0007a783          	lw	a5,0(a5)
    800039a0:	00200713          	li	a4,2
    800039a4:	24e78ae3          	beq	a5,a4,800043f8 <bench_15pz_run+0xaa4>
    800039a8:	10f74e63          	blt	a4,a5,80003ac4 <bench_15pz_run+0x170>
    800039ac:	1e0780e3          	beqz	a5,8000438c <bench_15pz_run+0xa38>
    800039b0:	00100713          	li	a4,1
    800039b4:	2ee794e3          	bne	a5,a4,8000449c <bench_15pz_run+0xb48>
    800039b8:	08010493          	addi	s1,sp,128
    800039bc:	00002597          	auipc	a1,0x2
    800039c0:	3f458593          	addi	a1,a1,1012 # 80005db0 <_ZL8PUZZLE_M>
    800039c4:	00048513          	mv	a0,s1
    800039c8:	9d5ff0ef          	jal	ra,8000339c <_ZN8N_puzzleILi4EEC1EPi>
    800039cc:	08012783          	lw	a5,128(sp)
    800039d0:	08014803          	lbu	a6,128(sp)
    800039d4:	03810713          	addi	a4,sp,56
    800039d8:	02f12c23          	sw	a5,56(sp)
    800039dc:	09412783          	lw	a5,148(sp)
    800039e0:	09010413          	addi	s0,sp,144
    800039e4:	04f12623          	sw	a5,76(sp)
    800039e8:	00048793          	mv	a5,s1
    800039ec:	0047c503          	lbu	a0,4(a5)
    800039f0:	0057c583          	lbu	a1,5(a5)
    800039f4:	0067c603          	lbu	a2,6(a5)
    800039f8:	0077c683          	lbu	a3,7(a5)
    800039fc:	00a70223          	sb	a0,4(a4)
    80003a00:	00b702a3          	sb	a1,5(a4)
    80003a04:	00c70323          	sb	a2,6(a4)
    80003a08:	00d703a3          	sb	a3,7(a4)
    80003a0c:	00478793          	addi	a5,a5,4
    80003a10:	00470713          	addi	a4,a4,4
    80003a14:	fc879ce3          	bne	a5,s0,800039ec <bench_15pz_run+0x98>
    80003a18:	00001d37          	lui	s10,0x1
    80003a1c:	800d0793          	addi	a5,s10,-2048 # 800 <_entry_offset+0x800>
    80003a20:	00f13823          	sd	a5,16(sp)
    80003a24:	10080a63          	beqz	a6,80003b38 <bench_15pz_run+0x1e4>
    80003a28:	00040613          	mv	a2,s0
    80003a2c:	03810513          	addi	a0,sp,56
    80003a30:	00000593          	li	a1,0
    80003a34:	01000813          	li	a6,16
    80003a38:	01000893          	li	a7,16
    80003a3c:	ff060793          	addi	a5,a2,-16
    80003a40:	00050713          	mv	a4,a0
    80003a44:	00470683          	lb	a3,4(a4)
    80003a48:	10069863          	bnez	a3,80003b58 <bench_15pz_run+0x204>
    80003a4c:	0107a023          	sw	a6,0(a5)
    80003a50:	00478793          	addi	a5,a5,4
    80003a54:	00170713          	addi	a4,a4,1
    80003a58:	fef616e3          	bne	a2,a5,80003a44 <bench_15pz_run+0xf0>
    80003a5c:	0045859b          	addiw	a1,a1,4
    80003a60:	01060613          	addi	a2,a2,16
    80003a64:	00450513          	addi	a0,a0,4
    80003a68:	fd159ae3          	bne	a1,a7,80003a3c <bench_15pz_run+0xe8>
    80003a6c:	08012683          	lw	a3,128(sp)
    80003a70:	00100513          	li	a0,1
    80003a74:	00000613          	li	a2,0
    80003a78:	00100793          	li	a5,1
    80003a7c:	01000593          	li	a1,16
    80003a80:	00279713          	slli	a4,a5,0x2
    80003a84:	0c010813          	addi	a6,sp,192
    80003a88:	00e80733          	add	a4,a6,a4
    80003a8c:	fc072703          	lw	a4,-64(a4)
    80003a90:	00d75463          	bge	a4,a3,80003a98 <bench_15pz_run+0x144>
    80003a94:	0016061b          	addiw	a2,a2,1
    80003a98:	0017879b          	addiw	a5,a5,1
    80003a9c:	00078713          	mv	a4,a5
    80003aa0:	feb790e3          	bne	a5,a1,80003a80 <bench_15pz_run+0x12c>
    80003aa4:	0015079b          	addiw	a5,a0,1
    80003aa8:	0ae78c63          	beq	a5,a4,80003b60 <bench_15pz_run+0x20c>
    80003aac:	00251513          	slli	a0,a0,0x2
    80003ab0:	0c010713          	addi	a4,sp,192
    80003ab4:	00a70533          	add	a0,a4,a0
    80003ab8:	fc052683          	lw	a3,-64(a0)
    80003abc:	00078513          	mv	a0,a5
    80003ac0:	fc1ff06f          	j	80003a80 <bench_15pz_run+0x12c>
    80003ac4:	00300713          	li	a4,3
    80003ac8:	1ce79ae3          	bne	a5,a4,8000449c <bench_15pz_run+0xb48>
    80003acc:	08010493          	addi	s1,sp,128
    80003ad0:	00002597          	auipc	a1,0x2
    80003ad4:	26058593          	addi	a1,a1,608 # 80005d30 <_ZL8PUZZLE_H>
    80003ad8:	00048513          	mv	a0,s1
    80003adc:	8c1ff0ef          	jal	ra,8000339c <_ZN8N_puzzleILi4EEC1EPi>
    80003ae0:	08012783          	lw	a5,128(sp)
    80003ae4:	08014803          	lbu	a6,128(sp)
    80003ae8:	03810713          	addi	a4,sp,56
    80003aec:	02f12c23          	sw	a5,56(sp)
    80003af0:	09412783          	lw	a5,148(sp)
    80003af4:	09010413          	addi	s0,sp,144
    80003af8:	04f12623          	sw	a5,76(sp)
    80003afc:	00048793          	mv	a5,s1
    80003b00:	0047c503          	lbu	a0,4(a5)
    80003b04:	0057c583          	lbu	a1,5(a5)
    80003b08:	0067c603          	lbu	a2,6(a5)
    80003b0c:	0077c683          	lbu	a3,7(a5)
    80003b10:	00a70223          	sb	a0,4(a4)
    80003b14:	00b702a3          	sb	a1,5(a4)
    80003b18:	00c70323          	sb	a2,6(a4)
    80003b1c:	00d703a3          	sb	a3,7(a4)
    80003b20:	00478793          	addi	a5,a5,4
    80003b24:	00470713          	addi	a4,a4,4
    80003b28:	fc879ce3          	bne	a5,s0,80003b00 <bench_15pz_run+0x1ac>
    80003b2c:	000c07b7          	lui	a5,0xc0
    80003b30:	00f13823          	sd	a5,16(sp)
    80003b34:	ee081ae3          	bnez	a6,80003a28 <bench_15pz_run+0xd4>
    80003b38:	03500613          	li	a2,53
    80003b3c:	00002597          	auipc	a1,0x2
    80003b40:	a7c58593          	addi	a1,a1,-1412 # 800055b8 <r+0x6d8>
    80003b44:	00001517          	auipc	a0,0x1
    80003b48:	27c50513          	addi	a0,a0,636 # 80004dc0 <_etext+0x5c>
    80003b4c:	615000ef          	jal	ra,80004960 <printf>
    80003b50:	00100513          	li	a0,1
    80003b54:	29d000ef          	jal	ra,800045f0 <halt>
    80003b58:	00d7a023          	sw	a3,0(a5) # c0000 <_entry_offset+0xc0000>
    80003b5c:	ef5ff06f          	j	80003a50 <bench_15pz_run+0xfc>
    80003b60:	03914683          	lbu	a3,57(sp)
    80003b64:	03a14703          	lbu	a4,58(sp)
    80003b68:	00600793          	li	a5,6
    80003b6c:	40d787bb          	subw	a5,a5,a3
    80003b70:	40e787bb          	subw	a5,a5,a4
    80003b74:	00c787bb          	addw	a5,a5,a2
    80003b78:	0017f793          	andi	a5,a5,1
    80003b7c:	fa079ee3          	bnez	a5,80003b38 <bench_15pz_run+0x1e4>
    80003b80:	02000513          	li	a0,32
    80003b84:	cd8fe0ef          	jal	ra,8000205c <bench_alloc>
    80003b88:	01013783          	ld	a5,16(sp)
    80003b8c:	00050d93          	mv	s11,a0
    80003b90:	00f52023          	sw	a5,0(a0)
    80003b94:	00379513          	slli	a0,a5,0x3
    80003b98:	cc4fe0ef          	jal	ra,8000205c <bench_alloc>
    80003b9c:	000da783          	lw	a5,0(s11)
    80003ba0:	00adb823          	sd	a0,16(s11)
    80003ba4:	0017879b          	addiw	a5,a5,1
    80003ba8:	00379513          	slli	a0,a5,0x3
    80003bac:	cb0fe0ef          	jal	ra,8000205c <bench_alloc>
    80003bb0:	000da703          	lw	a4,0(s11)
    80003bb4:	00adb423          	sd	a0,8(s11)
    80003bb8:	000dbc23          	sd	zero,24(s11)
    80003bbc:	00050793          	mv	a5,a0
    80003bc0:	02e05263          	blez	a4,80003be4 <bench_15pz_run+0x290>
    80003bc4:	fff7071b          	addiw	a4,a4,-1
    80003bc8:	02071713          	slli	a4,a4,0x20
    80003bcc:	01d75713          	srli	a4,a4,0x1d
    80003bd0:	00850693          	addi	a3,a0,8
    80003bd4:	00d70733          	add	a4,a4,a3
    80003bd8:	0007b023          	sd	zero,0(a5)
    80003bdc:	00878793          	addi	a5,a5,8
    80003be0:	fef71ce3          	bne	a4,a5,80003bd8 <bench_15pz_run+0x284>
    80003be4:	00000613          	li	a2,0
    80003be8:	03810593          	addi	a1,sp,56
    80003bec:	000d8513          	mv	a0,s11
    80003bf0:	a25ff0ef          	jal	ra,80003614 <_ZN14Updatable_heapI8N_puzzleILi4EEE4pushERKS1_i>
    80003bf4:	018da603          	lw	a2,24(s11)
    80003bf8:	fff00793          	li	a5,-1
    80003bfc:	00002717          	auipc	a4,0x2
    80003c00:	76470713          	addi	a4,a4,1892 # 80006360 <_ZL3ans>
    80003c04:	00f72023          	sw	a5,0(a4)
    80003c08:	00000913          	li	s2,0
    80003c0c:	44060063          	beqz	a2,8000404c <bench_15pz_run+0x6f8>
    80003c10:	01048793          	addi	a5,s1,16
    80003c14:	00100b13          	li	s6,1
    80003c18:	00f00d13          	li	s10,15
    80003c1c:	01448c93          	addi	s9,s1,20
    80003c20:	00f13423          	sd	a5,8(sp)
    80003c24:	06010993          	addi	s3,sp,96
    80003c28:	010dbf03          	ld	t5,16(s11)
    80003c2c:	00048713          	mv	a4,s1
    80003c30:	00048693          	mv	a3,s1
    80003c34:	008f3783          	ld	a5,8(t5)
    80003c38:	00378583          	lb	a1,3(a5)
    80003c3c:	0007cb83          	lbu	s7,0(a5)
    80003c40:	0017ca03          	lbu	s4,1(a5)
    80003c44:	0027ca83          	lbu	s5,2(a5)
    80003c48:	0007ae83          	lw	t4,0(a5)
    80003c4c:	0147ac03          	lw	s8,20(a5)
    80003c50:	00b13c23          	sd	a1,24(sp)
    80003c54:	00478793          	addi	a5,a5,4
    80003c58:	0007cf83          	lbu	t6,0(a5)
    80003c5c:	0017c303          	lbu	t1,1(a5)
    80003c60:	0027c503          	lbu	a0,2(a5)
    80003c64:	0037c583          	lbu	a1,3(a5)
    80003c68:	01f68223          	sb	t6,4(a3)
    80003c6c:	006682a3          	sb	t1,5(a3)
    80003c70:	00a68323          	sb	a0,6(a3)
    80003c74:	00b683a3          	sb	a1,7(a3)
    80003c78:	00468693          	addi	a3,a3,4
    80003c7c:	00478793          	addi	a5,a5,4
    80003c80:	fcd41ce3          	bne	s0,a3,80003c58 <bench_15pz_run+0x304>
    80003c84:	57660663          	beq	a2,s6,800041f0 <bench_15pz_run+0x89c>
    80003c88:	00cb5ee3          	bge	s6,a2,800044a4 <bench_15pz_run+0xb50>
    80003c8c:	00361613          	slli	a2,a2,0x3
    80003c90:	00cf0633          	add	a2,t5,a2
    80003c94:	00063783          	ld	a5,0(a2)
    80003c98:	000d8513          	mv	a0,s11
    80003c9c:	02e13423          	sd	a4,40(sp)
    80003ca0:	00ff3423          	sd	a5,8(t5)
    80003ca4:	0367a023          	sw	s6,32(a5)
    80003ca8:	018da783          	lw	a5,24(s11)
    80003cac:	03d13023          	sd	t4,32(sp)
    80003cb0:	fff7879b          	addiw	a5,a5,-1
    80003cb4:	00fdac23          	sw	a5,24(s11)
    80003cb8:	ba1ff0ef          	jal	ra,80003858 <_ZN14Updatable_heapI8N_puzzleILi4EEE14percolate_downEv>
    80003cbc:	02813703          	ld	a4,40(sp)
    80003cc0:	02013e83          	ld	t4,32(sp)
    80003cc4:	07812223          	sw	s8,100(sp)
    80003cc8:	05010c13          	addi	s8,sp,80
    80003ccc:	05d12823          	sw	t4,80(sp)
    80003cd0:	000c0793          	mv	a5,s8
    80003cd4:	00474303          	lbu	t1,4(a4)
    80003cd8:	00574503          	lbu	a0,5(a4)
    80003cdc:	00674583          	lbu	a1,6(a4)
    80003ce0:	00774603          	lbu	a2,7(a4)
    80003ce4:	00678223          	sb	t1,4(a5)
    80003ce8:	00a782a3          	sb	a0,5(a5)
    80003cec:	00b78323          	sb	a1,6(a5)
    80003cf0:	00c783a3          	sb	a2,7(a5)
    80003cf4:	00470713          	addi	a4,a4,4
    80003cf8:	00478793          	addi	a5,a5,4
    80003cfc:	fce41ce3          	bne	s0,a4,80003cd4 <bench_15pz_run+0x380>
    80003d00:	0019091b          	addiw	s2,s2,1
    80003d04:	00048713          	mv	a4,s1
    80003d08:	00000793          	li	a5,0
    80003d0c:	0017879b          	addiw	a5,a5,1
    80003d10:	00f72023          	sw	a5,0(a4)
    80003d14:	00470713          	addi	a4,a4,4
    80003d18:	ffa79ae3          	bne	a5,s10,80003d0c <bench_15pz_run+0x3b8>
    80003d1c:	00048593          	mv	a1,s1
    80003d20:	06810513          	addi	a0,sp,104
    80003d24:	0a012e23          	sw	zero,188(sp)
    80003d28:	e74ff0ef          	jal	ra,8000339c <_ZN8N_puzzleILi4EEC1EPi>
    80003d2c:	06810593          	addi	a1,sp,104
    80003d30:	05010513          	addi	a0,sp,80
    80003d34:	fa4ff0ef          	jal	ra,800034d8 <_ZNK8N_puzzleILi4EEeqERKS0_>
    80003d38:	72051663          	bnez	a0,80004464 <bench_15pz_run+0xb10>
    80003d3c:	300b8063          	beqz	s7,8000403c <bench_15pz_run+0x6e8>
    80003d40:	00300793          	li	a5,3
    80003d44:	4afa8a63          	beq	s5,a5,800041f8 <bench_15pz_run+0x8a4>
    80003d48:	00048513          	mv	a0,s1
    80003d4c:	00048713          	mv	a4,s1
    80003d50:	05010793          	addi	a5,sp,80
    80003d54:	0047ce03          	lbu	t3,4(a5)
    80003d58:	0057c303          	lbu	t1,5(a5)
    80003d5c:	0067c583          	lbu	a1,6(a5)
    80003d60:	0077c603          	lbu	a2,7(a5)
    80003d64:	01c70223          	sb	t3,4(a4)
    80003d68:	006702a3          	sb	t1,5(a4)
    80003d6c:	00b70323          	sb	a1,6(a4)
    80003d70:	00c703a3          	sb	a2,7(a4)
    80003d74:	00478793          	addi	a5,a5,4
    80003d78:	00470713          	addi	a4,a4,4
    80003d7c:	fcf99ce3          	bne	s3,a5,80003d54 <bench_15pz_run+0x400>
    80003d80:	0c010793          	addi	a5,sp,192
    80003d84:	002a1593          	slli	a1,s4,0x2
    80003d88:	00b785b3          	add	a1,a5,a1
    80003d8c:	001a8f13          	addi	t5,s5,1
    80003d90:	01e587b3          	add	a5,a1,t5
    80003d94:	f9478303          	lb	t1,-108(a5)
    80003d98:	001a879b          	addiw	a5,s5,1
    80003d9c:	01558eb3          	add	t4,a1,s5
    80003da0:	fff3071b          	addiw	a4,t1,-1
    80003da4:	41f7561b          	sraiw	a2,a4,0x1f
    80003da8:	01e6561b          	srliw	a2,a2,0x1e
    80003dac:	00c7073b          	addw	a4,a4,a2
    80003db0:	00377713          	andi	a4,a4,3
    80003db4:	40c7073b          	subw	a4,a4,a2
    80003db8:	4157063b          	subw	a2,a4,s5
    80003dbc:	40f707bb          	subw	a5,a4,a5
    80003dc0:	41f65f9b          	sraiw	t6,a2,0x1f
    80003dc4:	41f7d71b          	sraiw	a4,a5,0x1f
    80003dc8:	00cfce33          	xor	t3,t6,a2
    80003dcc:	00f747b3          	xor	a5,a4,a5
    80003dd0:	40e787bb          	subw	a5,a5,a4
    80003dd4:	41fe0e3b          	subw	t3,t3,t6
    80003dd8:	40fe0e3b          	subw	t3,t3,a5
    80003ddc:	01813783          	ld	a5,24(sp)
    80003de0:	0fff7f13          	andi	t5,t5,255
    80003de4:	fc6e8223          	sb	t1,-60(t4)
    80003de8:	00fe0e3b          	addw	t3,t3,a5
    80003dec:	001a8e9b          	addiw	t4,s5,1
    80003df0:	01e585b3          	add	a1,a1,t5
    80003df4:	000a879b          	sext.w	a5,s5
    80003df8:	018e1e1b          	slliw	t3,t3,0x18
    80003dfc:	000a0b9b          	sext.w	s7,s4
    80003e00:	02f13023          	sd	a5,32(sp)
    80003e04:	418e5e1b          	sraiw	t3,t3,0x18
    80003e08:	0ffefe93          	andi	t4,t4,255
    80003e0c:	fc058223          	sb	zero,-60(a1)
    80003e10:	00448613          	addi	a2,s1,4
    80003e14:	00000713          	li	a4,0
    80003e18:	7b500313          	li	t1,1973
    80003e1c:	ffc60793          	addi	a5,a2,-4
    80003e20:	02e3073b          	mulw	a4,t1,a4
    80003e24:	00478583          	lb	a1,4(a5)
    80003e28:	00178793          	addi	a5,a5,1
    80003e2c:	00b7073b          	addw	a4,a4,a1
    80003e30:	fef618e3          	bne	a2,a5,80003e20 <bench_15pz_run+0x4cc>
    80003e34:	00460613          	addi	a2,a2,4
    80003e38:	fecc92e3          	bne	s9,a2,80003e1c <bench_15pz_run+0x4c8>
    80003e3c:	00100793          	li	a5,1
    80003e40:	06f10423          	sb	a5,104(sp)
    80003e44:	074104a3          	sb	s4,105(sp)
    80003e48:	07d10523          	sb	t4,106(sp)
    80003e4c:	07c105a3          	sb	t3,107(sp)
    80003e50:	06e12e23          	sw	a4,124(sp)
    80003e54:	06810793          	addi	a5,sp,104
    80003e58:	00754703          	lbu	a4,7(a0)
    80003e5c:	00454303          	lbu	t1,4(a0)
    80003e60:	00554583          	lbu	a1,5(a0)
    80003e64:	00654603          	lbu	a2,6(a0)
    80003e68:	00e783a3          	sb	a4,7(a5)
    80003e6c:	00813703          	ld	a4,8(sp)
    80003e70:	00678223          	sb	t1,4(a5)
    80003e74:	00b782a3          	sb	a1,5(a5)
    80003e78:	00c78323          	sb	a2,6(a5)
    80003e7c:	00450513          	addi	a0,a0,4
    80003e80:	00478793          	addi	a5,a5,4
    80003e84:	fce51ae3          	bne	a0,a4,80003e58 <bench_15pz_run+0x504>
    80003e88:	008db583          	ld	a1,8(s11)
    80003e8c:	000da503          	lw	a0,0(s11)
    80003e90:	05010613          	addi	a2,sp,80
    80003e94:	ea0ff0ef          	jal	ra,80003534 <_ZNK14Updatable_heapI8N_puzzleILi4EEE7pointerERKS1_.isra.0>
    80003e98:	4c050a63          	beqz	a0,8000436c <bench_15pz_run+0xa18>
    80003e9c:	02452603          	lw	a2,36(a0)
    80003ea0:	0016061b          	addiw	a2,a2,1
    80003ea4:	06810593          	addi	a1,sp,104
    80003ea8:	000d8513          	mv	a0,s11
    80003eac:	f68ff0ef          	jal	ra,80003614 <_ZN14Updatable_heapI8N_puzzleILi4EEE4pushERKS1_i>
    80003eb0:	340a9863          	bnez	s5,80004200 <bench_15pz_run+0x8ac>
    80003eb4:	00300793          	li	a5,3
    80003eb8:	1efa0e63          	beq	s4,a5,800040b4 <bench_15pz_run+0x760>
    80003ebc:	00048513          	mv	a0,s1
    80003ec0:	00048713          	mv	a4,s1
    80003ec4:	05010793          	addi	a5,sp,80
    80003ec8:	0047ce03          	lbu	t3,4(a5)
    80003ecc:	0057c303          	lbu	t1,5(a5)
    80003ed0:	0067c583          	lbu	a1,6(a5)
    80003ed4:	0077c603          	lbu	a2,7(a5)
    80003ed8:	01c70223          	sb	t3,4(a4)
    80003edc:	006702a3          	sb	t1,5(a4)
    80003ee0:	00b70323          	sb	a1,6(a4)
    80003ee4:	00c703a3          	sb	a2,7(a4)
    80003ee8:	00478793          	addi	a5,a5,4
    80003eec:	00470713          	addi	a4,a4,4
    80003ef0:	fcf99ce3          	bne	s3,a5,80003ec8 <bench_15pz_run+0x574>
    80003ef4:	02013683          	ld	a3,32(sp)
    80003ef8:	001b8e13          	addi	t3,s7,1
    80003efc:	002e1793          	slli	a5,t3,0x2
    80003f00:	0c010713          	addi	a4,sp,192
    80003f04:	00f707b3          	add	a5,a4,a5
    80003f08:	00d787b3          	add	a5,a5,a3
    80003f0c:	f9478583          	lb	a1,-108(a5)
    80003f10:	001b879b          	addiw	a5,s7,1
    80003f14:	002b9313          	slli	t1,s7,0x2
    80003f18:	fff5861b          	addiw	a2,a1,-1
    80003f1c:	41f6571b          	sraiw	a4,a2,0x1f
    80003f20:	01e7571b          	srliw	a4,a4,0x1e
    80003f24:	00c7073b          	addw	a4,a4,a2
    80003f28:	4027571b          	sraiw	a4,a4,0x2
    80003f2c:	4177063b          	subw	a2,a4,s7
    80003f30:	40f707bb          	subw	a5,a4,a5
    80003f34:	41f65f9b          	sraiw	t6,a2,0x1f
    80003f38:	41f7df1b          	sraiw	t5,a5,0x1f
    80003f3c:	00cfceb3          	xor	t4,t6,a2
    80003f40:	00ff47b3          	xor	a5,t5,a5
    80003f44:	41e787bb          	subw	a5,a5,t5
    80003f48:	0ffe7713          	andi	a4,t3,255
    80003f4c:	41fe8ebb          	subw	t4,t4,t6
    80003f50:	00271713          	slli	a4,a4,0x2
    80003f54:	40fe8ebb          	subw	t4,t4,a5
    80003f58:	0c010793          	addi	a5,sp,192
    80003f5c:	00e787b3          	add	a5,a5,a4
    80003f60:	01813703          	ld	a4,24(sp)
    80003f64:	0c010613          	addi	a2,sp,192
    80003f68:	00660633          	add	a2,a2,t1
    80003f6c:	00ee8ebb          	addw	t4,t4,a4
    80003f70:	00d60633          	add	a2,a2,a3
    80003f74:	fcb60223          	sb	a1,-60(a2)
    80003f78:	001a0f1b          	addiw	t5,s4,1
    80003f7c:	00d787b3          	add	a5,a5,a3
    80003f80:	00448e13          	addi	t3,s1,4
    80003f84:	018e9e9b          	slliw	t4,t4,0x18
    80003f88:	418ede9b          	sraiw	t4,t4,0x18
    80003f8c:	0fff7f13          	andi	t5,t5,255
    80003f90:	fc078223          	sb	zero,-60(a5)
    80003f94:	000e0593          	mv	a1,t3
    80003f98:	00000713          	li	a4,0
    80003f9c:	7b500313          	li	t1,1973
    80003fa0:	ffc58793          	addi	a5,a1,-4
    80003fa4:	02e3073b          	mulw	a4,t1,a4
    80003fa8:	00478603          	lb	a2,4(a5)
    80003fac:	00178793          	addi	a5,a5,1
    80003fb0:	00c7073b          	addw	a4,a4,a2
    80003fb4:	feb798e3          	bne	a5,a1,80003fa4 <bench_15pz_run+0x650>
    80003fb8:	00478593          	addi	a1,a5,4
    80003fbc:	febc92e3          	bne	s9,a1,80003fa0 <bench_15pz_run+0x64c>
    80003fc0:	00100793          	li	a5,1
    80003fc4:	06f10423          	sb	a5,104(sp)
    80003fc8:	07e104a3          	sb	t5,105(sp)
    80003fcc:	07510523          	sb	s5,106(sp)
    80003fd0:	07d105a3          	sb	t4,107(sp)
    80003fd4:	06e12e23          	sw	a4,124(sp)
    80003fd8:	06810793          	addi	a5,sp,104
    80003fdc:	00754703          	lbu	a4,7(a0)
    80003fe0:	00454303          	lbu	t1,4(a0)
    80003fe4:	00554583          	lbu	a1,5(a0)
    80003fe8:	00654603          	lbu	a2,6(a0)
    80003fec:	00e783a3          	sb	a4,7(a5)
    80003ff0:	00813703          	ld	a4,8(sp)
    80003ff4:	00678223          	sb	t1,4(a5)
    80003ff8:	00b782a3          	sb	a1,5(a5)
    80003ffc:	00c78323          	sb	a2,6(a5)
    80004000:	000e0513          	mv	a0,t3
    80004004:	00478793          	addi	a5,a5,4
    80004008:	09c70063          	beq	a4,t3,80004088 <bench_15pz_run+0x734>
    8000400c:	004e0e13          	addi	t3,t3,4
    80004010:	fcdff06f          	j	80003fdc <bench_15pz_run+0x688>
    80004014:	008db583          	ld	a1,8(s11)
    80004018:	000da503          	lw	a0,0(s11)
    8000401c:	05010613          	addi	a2,sp,80
    80004020:	d14ff0ef          	jal	ra,80003534 <_ZNK14Updatable_heapI8N_puzzleILi4EEE7pointerERKS1_.isra.0>
    80004024:	36050063          	beqz	a0,80004384 <bench_15pz_run+0xa30>
    80004028:	02452603          	lw	a2,36(a0)
    8000402c:	0016061b          	addiw	a2,a2,1
    80004030:	06810593          	addi	a1,sp,104
    80004034:	000d8513          	mv	a0,s11
    80004038:	ddcff0ef          	jal	ra,80003614 <_ZN14Updatable_heapI8N_puzzleILi4EEE4pushERKS1_i>
    8000403c:	018da603          	lw	a2,24(s11)
    80004040:	00060663          	beqz	a2,8000404c <bench_15pz_run+0x6f8>
    80004044:	01013783          	ld	a5,16(sp)
    80004048:	bf2790e3          	bne	a5,s2,80003c28 <bench_15pz_run+0x2d4>
    8000404c:	12813083          	ld	ra,296(sp)
    80004050:	12013403          	ld	s0,288(sp)
    80004054:	11813483          	ld	s1,280(sp)
    80004058:	11013903          	ld	s2,272(sp)
    8000405c:	10813983          	ld	s3,264(sp)
    80004060:	10013a03          	ld	s4,256(sp)
    80004064:	0f813a83          	ld	s5,248(sp)
    80004068:	0f013b03          	ld	s6,240(sp)
    8000406c:	0e813b83          	ld	s7,232(sp)
    80004070:	0e013c03          	ld	s8,224(sp)
    80004074:	0d813c83          	ld	s9,216(sp)
    80004078:	0d013d03          	ld	s10,208(sp)
    8000407c:	0c813d83          	ld	s11,200(sp)
    80004080:	13010113          	addi	sp,sp,304
    80004084:	00008067          	ret
    80004088:	008db583          	ld	a1,8(s11)
    8000408c:	000da503          	lw	a0,0(s11)
    80004090:	05010613          	addi	a2,sp,80
    80004094:	ca0ff0ef          	jal	ra,80003534 <_ZNK14Updatable_heapI8N_puzzleILi4EEE7pointerERKS1_.isra.0>
    80004098:	2c050e63          	beqz	a0,80004374 <bench_15pz_run+0xa20>
    8000409c:	02452603          	lw	a2,36(a0)
    800040a0:	0016061b          	addiw	a2,a2,1
    800040a4:	06810593          	addi	a1,sp,104
    800040a8:	000d8513          	mv	a0,s11
    800040ac:	d68ff0ef          	jal	ra,80003614 <_ZN14Updatable_heapI8N_puzzleILi4EEE4pushERKS1_i>
    800040b0:	f80a06e3          	beqz	s4,8000403c <bench_15pz_run+0x6e8>
    800040b4:	00048313          	mv	t1,s1
    800040b8:	00048793          	mv	a5,s1
    800040bc:	004c4503          	lbu	a0,4(s8)
    800040c0:	005c4583          	lbu	a1,5(s8)
    800040c4:	006c4603          	lbu	a2,6(s8)
    800040c8:	007c4703          	lbu	a4,7(s8)
    800040cc:	00a78223          	sb	a0,4(a5)
    800040d0:	00b782a3          	sb	a1,5(a5)
    800040d4:	00c78323          	sb	a2,6(a5)
    800040d8:	00e783a3          	sb	a4,7(a5)
    800040dc:	004c0c13          	addi	s8,s8,4
    800040e0:	00478793          	addi	a5,a5,4
    800040e4:	fd899ce3          	bne	s3,s8,800040bc <bench_15pz_run+0x768>
    800040e8:	fffb871b          	addiw	a4,s7,-1
    800040ec:	02013803          	ld	a6,32(sp)
    800040f0:	00070593          	mv	a1,a4
    800040f4:	0c010793          	addi	a5,sp,192
    800040f8:	00271713          	slli	a4,a4,0x2
    800040fc:	00e78733          	add	a4,a5,a4
    80004100:	01070733          	add	a4,a4,a6
    80004104:	f9470683          	lb	a3,-108(a4)
    80004108:	002b9613          	slli	a2,s7,0x2
    8000410c:	00c78633          	add	a2,a5,a2
    80004110:	fff6851b          	addiw	a0,a3,-1
    80004114:	41f5579b          	sraiw	a5,a0,0x1f
    80004118:	01e7d79b          	srliw	a5,a5,0x1e
    8000411c:	00a787bb          	addw	a5,a5,a0
    80004120:	4027d79b          	sraiw	a5,a5,0x2
    80004124:	41778bbb          	subw	s7,a5,s7
    80004128:	40b787bb          	subw	a5,a5,a1
    8000412c:	41fbde1b          	sraiw	t3,s7,0x1f
    80004130:	41f7d59b          	sraiw	a1,a5,0x1f
    80004134:	017e4533          	xor	a0,t3,s7
    80004138:	00f5c7b3          	xor	a5,a1,a5
    8000413c:	41c5053b          	subw	a0,a0,t3
    80004140:	40b787bb          	subw	a5,a5,a1
    80004144:	40f5053b          	subw	a0,a0,a5
    80004148:	01813783          	ld	a5,24(sp)
    8000414c:	01060633          	add	a2,a2,a6
    80004150:	fcd60223          	sb	a3,-60(a2)
    80004154:	00f5053b          	addw	a0,a0,a5
    80004158:	fffa069b          	addiw	a3,s4,-1
    8000415c:	00448e93          	addi	t4,s1,4
    80004160:	0185151b          	slliw	a0,a0,0x18
    80004164:	fc070223          	sb	zero,-60(a4)
    80004168:	4185551b          	sraiw	a0,a0,0x18
    8000416c:	0ff6f693          	andi	a3,a3,255
    80004170:	000e8613          	mv	a2,t4
    80004174:	00000713          	li	a4,0
    80004178:	7b500e13          	li	t3,1973
    8000417c:	ffc60793          	addi	a5,a2,-4
    80004180:	02ee073b          	mulw	a4,t3,a4
    80004184:	00478583          	lb	a1,4(a5)
    80004188:	00178793          	addi	a5,a5,1
    8000418c:	00b7073b          	addw	a4,a4,a1
    80004190:	fef618e3          	bne	a2,a5,80004180 <bench_15pz_run+0x82c>
    80004194:	00460613          	addi	a2,a2,4
    80004198:	fecc92e3          	bne	s9,a2,8000417c <bench_15pz_run+0x828>
    8000419c:	00100793          	li	a5,1
    800041a0:	06f10423          	sb	a5,104(sp)
    800041a4:	06d104a3          	sb	a3,105(sp)
    800041a8:	07510523          	sb	s5,106(sp)
    800041ac:	06a105a3          	sb	a0,107(sp)
    800041b0:	06e12e23          	sw	a4,124(sp)
    800041b4:	06810793          	addi	a5,sp,104
    800041b8:	00734703          	lbu	a4,7(t1)
    800041bc:	00434583          	lbu	a1,4(t1)
    800041c0:	00534603          	lbu	a2,5(t1)
    800041c4:	00634683          	lbu	a3,6(t1)
    800041c8:	00e783a3          	sb	a4,7(a5)
    800041cc:	00813703          	ld	a4,8(sp)
    800041d0:	00b78223          	sb	a1,4(a5)
    800041d4:	00c782a3          	sb	a2,5(a5)
    800041d8:	00d78323          	sb	a3,6(a5)
    800041dc:	000e8313          	mv	t1,t4
    800041e0:	00478793          	addi	a5,a5,4
    800041e4:	e2ee88e3          	beq	t4,a4,80004014 <bench_15pz_run+0x6c0>
    800041e8:	004e8e93          	addi	t4,t4,4
    800041ec:	fcdff06f          	j	800041b8 <bench_15pz_run+0x864>
    800041f0:	000dac23          	sw	zero,24(s11)
    800041f4:	ad1ff06f          	j	80003cc4 <bench_15pz_run+0x370>
    800041f8:	000a0b9b          	sext.w	s7,s4
    800041fc:	02f13023          	sd	a5,32(sp)
    80004200:	00048513          	mv	a0,s1
    80004204:	00048713          	mv	a4,s1
    80004208:	05010793          	addi	a5,sp,80
    8000420c:	0047ce03          	lbu	t3,4(a5)
    80004210:	0057c303          	lbu	t1,5(a5)
    80004214:	0067c583          	lbu	a1,6(a5)
    80004218:	0077c603          	lbu	a2,7(a5)
    8000421c:	01c70223          	sb	t3,4(a4)
    80004220:	006702a3          	sb	t1,5(a4)
    80004224:	00b70323          	sb	a1,6(a4)
    80004228:	00c703a3          	sb	a2,7(a4)
    8000422c:	00478793          	addi	a5,a5,4
    80004230:	00470713          	addi	a4,a4,4
    80004234:	fd379ce3          	bne	a5,s3,8000420c <bench_15pz_run+0x8b8>
    80004238:	02013683          	ld	a3,32(sp)
    8000423c:	0c010713          	addi	a4,sp,192
    80004240:	002b9313          	slli	t1,s7,0x2
    80004244:	fff6879b          	addiw	a5,a3,-1
    80004248:	00670333          	add	t1,a4,t1
    8000424c:	0007859b          	sext.w	a1,a5
    80004250:	00058e93          	mv	t4,a1
    80004254:	00b305b3          	add	a1,t1,a1
    80004258:	f9458e03          	lb	t3,-108(a1)
    8000425c:	00d30333          	add	t1,t1,a3
    80004260:	fffa861b          	addiw	a2,s5,-1
    80004264:	fffe079b          	addiw	a5,t3,-1
    80004268:	41f7d71b          	sraiw	a4,a5,0x1f
    8000426c:	01e7571b          	srliw	a4,a4,0x1e
    80004270:	00e787bb          	addw	a5,a5,a4
    80004274:	0037f793          	andi	a5,a5,3
    80004278:	40e787bb          	subw	a5,a5,a4
    8000427c:	40d7873b          	subw	a4,a5,a3
    80004280:	41d787bb          	subw	a5,a5,t4
    80004284:	41f75f9b          	sraiw	t6,a4,0x1f
    80004288:	41f7df1b          	sraiw	t5,a5,0x1f
    8000428c:	00efceb3          	xor	t4,t6,a4
    80004290:	00ff47b3          	xor	a5,t5,a5
    80004294:	41e787bb          	subw	a5,a5,t5
    80004298:	41fe8ebb          	subw	t4,t4,t6
    8000429c:	40fe8ebb          	subw	t4,t4,a5
    800042a0:	01813783          	ld	a5,24(sp)
    800042a4:	fdc30223          	sb	t3,-60(t1)
    800042a8:	00448e13          	addi	t3,s1,4
    800042ac:	00fe8ebb          	addw	t4,t4,a5
    800042b0:	018e9e9b          	slliw	t4,t4,0x18
    800042b4:	0ff67f13          	andi	t5,a2,255
    800042b8:	418ede9b          	sraiw	t4,t4,0x18
    800042bc:	fc058223          	sb	zero,-60(a1)
    800042c0:	000e0613          	mv	a2,t3
    800042c4:	00000713          	li	a4,0
    800042c8:	7b500313          	li	t1,1973
    800042cc:	ffc60793          	addi	a5,a2,-4
    800042d0:	02e3073b          	mulw	a4,t1,a4
    800042d4:	00478583          	lb	a1,4(a5)
    800042d8:	00178793          	addi	a5,a5,1
    800042dc:	00b7073b          	addw	a4,a4,a1
    800042e0:	fef618e3          	bne	a2,a5,800042d0 <bench_15pz_run+0x97c>
    800042e4:	00460613          	addi	a2,a2,4
    800042e8:	ff9612e3          	bne	a2,s9,800042cc <bench_15pz_run+0x978>
    800042ec:	00100793          	li	a5,1
    800042f0:	06f10423          	sb	a5,104(sp)
    800042f4:	074104a3          	sb	s4,105(sp)
    800042f8:	07e10523          	sb	t5,106(sp)
    800042fc:	07d105a3          	sb	t4,107(sp)
    80004300:	06e12e23          	sw	a4,124(sp)
    80004304:	06810793          	addi	a5,sp,104
    80004308:	00754703          	lbu	a4,7(a0)
    8000430c:	00454303          	lbu	t1,4(a0)
    80004310:	00554583          	lbu	a1,5(a0)
    80004314:	00654603          	lbu	a2,6(a0)
    80004318:	00e783a3          	sb	a4,7(a5)
    8000431c:	00813703          	ld	a4,8(sp)
    80004320:	00678223          	sb	t1,4(a5)
    80004324:	00b782a3          	sb	a1,5(a5)
    80004328:	00c78323          	sb	a2,6(a5)
    8000432c:	000e0513          	mv	a0,t3
    80004330:	00478793          	addi	a5,a5,4
    80004334:	00ee0663          	beq	t3,a4,80004340 <bench_15pz_run+0x9ec>
    80004338:	004e0e13          	addi	t3,t3,4
    8000433c:	fcdff06f          	j	80004308 <bench_15pz_run+0x9b4>
    80004340:	008db583          	ld	a1,8(s11)
    80004344:	000da503          	lw	a0,0(s11)
    80004348:	05010613          	addi	a2,sp,80
    8000434c:	9e8ff0ef          	jal	ra,80003534 <_ZNK14Updatable_heapI8N_puzzleILi4EEE7pointerERKS1_.isra.0>
    80004350:	02050663          	beqz	a0,8000437c <bench_15pz_run+0xa28>
    80004354:	02452603          	lw	a2,36(a0)
    80004358:	0016061b          	addiw	a2,a2,1
    8000435c:	06810593          	addi	a1,sp,104
    80004360:	000d8513          	mv	a0,s11
    80004364:	ab0ff0ef          	jal	ra,80003614 <_ZN14Updatable_heapI8N_puzzleILi4EEE4pushERKS1_i>
    80004368:	b4dff06f          	j	80003eb4 <bench_15pz_run+0x560>
    8000436c:	80000637          	lui	a2,0x80000
    80004370:	b35ff06f          	j	80003ea4 <bench_15pz_run+0x550>
    80004374:	80000637          	lui	a2,0x80000
    80004378:	d2dff06f          	j	800040a4 <bench_15pz_run+0x750>
    8000437c:	80000637          	lui	a2,0x80000
    80004380:	fddff06f          	j	8000435c <bench_15pz_run+0xa08>
    80004384:	80000637          	lui	a2,0x80000
    80004388:	ca9ff06f          	j	80004030 <bench_15pz_run+0x6dc>
    8000438c:	08010493          	addi	s1,sp,128
    80004390:	00002597          	auipc	a1,0x2
    80004394:	a6058593          	addi	a1,a1,-1440 # 80005df0 <_ZL8PUZZLE_S>
    80004398:	00048513          	mv	a0,s1
    8000439c:	800ff0ef          	jal	ra,8000339c <_ZN8N_puzzleILi4EEC1EPi>
    800043a0:	08012783          	lw	a5,128(sp)
    800043a4:	08014803          	lbu	a6,128(sp)
    800043a8:	03810713          	addi	a4,sp,56
    800043ac:	02f12c23          	sw	a5,56(sp)
    800043b0:	09412783          	lw	a5,148(sp)
    800043b4:	09010413          	addi	s0,sp,144
    800043b8:	04f12623          	sw	a5,76(sp)
    800043bc:	00048793          	mv	a5,s1
    800043c0:	0047c503          	lbu	a0,4(a5)
    800043c4:	0057c583          	lbu	a1,5(a5)
    800043c8:	0067c603          	lbu	a2,6(a5)
    800043cc:	0077c683          	lbu	a3,7(a5)
    800043d0:	00a70223          	sb	a0,4(a4)
    800043d4:	00b702a3          	sb	a1,5(a4)
    800043d8:	00c70323          	sb	a2,6(a4)
    800043dc:	00d703a3          	sb	a3,7(a4)
    800043e0:	00478793          	addi	a5,a5,4
    800043e4:	00470713          	addi	a4,a4,4
    800043e8:	fc879ce3          	bne	a5,s0,800043c0 <bench_15pz_run+0xa6c>
    800043ec:	00a00793          	li	a5,10
    800043f0:	00f13823          	sd	a5,16(sp)
    800043f4:	e30ff06f          	j	80003a24 <bench_15pz_run+0xd0>
    800043f8:	08010493          	addi	s1,sp,128
    800043fc:	00002597          	auipc	a1,0x2
    80004400:	97458593          	addi	a1,a1,-1676 # 80005d70 <_ZL8PUZZLE_L>
    80004404:	00048513          	mv	a0,s1
    80004408:	f95fe0ef          	jal	ra,8000339c <_ZN8N_puzzleILi4EEC1EPi>
    8000440c:	08012783          	lw	a5,128(sp)
    80004410:	08014803          	lbu	a6,128(sp)
    80004414:	03810713          	addi	a4,sp,56
    80004418:	02f12c23          	sw	a5,56(sp)
    8000441c:	09412783          	lw	a5,148(sp)
    80004420:	09010413          	addi	s0,sp,144
    80004424:	04f12623          	sw	a5,76(sp)
    80004428:	00048793          	mv	a5,s1
    8000442c:	0047c503          	lbu	a0,4(a5)
    80004430:	0057c583          	lbu	a1,5(a5)
    80004434:	0067c603          	lbu	a2,6(a5)
    80004438:	0077c683          	lbu	a3,7(a5)
    8000443c:	00a70223          	sb	a0,4(a4)
    80004440:	00b702a3          	sb	a1,5(a4)
    80004444:	00c70323          	sb	a2,6(a4)
    80004448:	00d703a3          	sb	a3,7(a4)
    8000444c:	00478793          	addi	a5,a5,4
    80004450:	00470713          	addi	a4,a4,4
    80004454:	fcf41ce3          	bne	s0,a5,8000442c <bench_15pz_run+0xad8>
    80004458:	000047b7          	lui	a5,0x4
    8000445c:	00f13823          	sd	a5,16(sp)
    80004460:	dc4ff06f          	j	80003a24 <bench_15pz_run+0xd0>
    80004464:	008db583          	ld	a1,8(s11)
    80004468:	000da503          	lw	a0,0(s11)
    8000446c:	05010613          	addi	a2,sp,80
    80004470:	8c4ff0ef          	jal	ra,80003534 <_ZNK14Updatable_heapI8N_puzzleILi4EEE7pointerERKS1_.isra.0>
    80004474:	00050e63          	beqz	a0,80004490 <bench_15pz_run+0xb3c>
    80004478:	02452783          	lw	a5,36(a0)
    8000447c:	02f9093b          	mulw	s2,s2,a5
    80004480:	00002797          	auipc	a5,0x2
    80004484:	ee078793          	addi	a5,a5,-288 # 80006360 <_ZL3ans>
    80004488:	0127a023          	sw	s2,0(a5)
    8000448c:	bc1ff06f          	j	8000404c <bench_15pz_run+0x6f8>
    80004490:	800007b7          	lui	a5,0x80000
    80004494:	fff7c793          	not	a5,a5
    80004498:	fe5ff06f          	j	8000447c <bench_15pz_run+0xb28>
    8000449c:	03300613          	li	a2,51
    800044a0:	e9cff06f          	j	80003b3c <bench_15pz_run+0x1e8>
    800044a4:	05600613          	li	a2,86
    800044a8:	00001597          	auipc	a1,0x1
    800044ac:	0c058593          	addi	a1,a1,192 # 80005568 <r+0x688>
    800044b0:	00001517          	auipc	a0,0x1
    800044b4:	91050513          	addi	a0,a0,-1776 # 80004dc0 <_etext+0x5c>
    800044b8:	4a8000ef          	jal	ra,80004960 <printf>
    800044bc:	00100513          	li	a0,1
    800044c0:	130000ef          	jal	ra,800045f0 <halt>

00000000800044c4 <dfs>:
    800044c4:	fd010113          	addi	sp,sp,-48
    800044c8:	01413023          	sd	s4,0(sp)
    800044cc:	02113423          	sd	ra,40(sp)
    800044d0:	02813023          	sd	s0,32(sp)
    800044d4:	00913c23          	sd	s1,24(sp)
    800044d8:	01213823          	sd	s2,16(sp)
    800044dc:	01313423          	sd	s3,8(sp)
    800044e0:	00002797          	auipc	a5,0x2
    800044e4:	e847a783          	lw	a5,-380(a5) # 80006364 <FULL>
    800044e8:	00100a13          	li	s4,1
    800044ec:	04a78c63          	beq	a5,a0,80004544 <dfs+0x80>
    800044f0:	00c5e433          	or	s0,a1,a2
    800044f4:	00a46433          	or	s0,s0,a0
    800044f8:	fff44413          	not	s0,s0
    800044fc:	00f47433          	and	s0,s0,a5
    80004500:	00050493          	mv	s1,a0
    80004504:	00058993          	mv	s3,a1
    80004508:	00060913          	mv	s2,a2
    8000450c:	00000a13          	li	s4,0
    80004510:	02040a63          	beqz	s0,80004544 <dfs+0x80>
    80004514:	408007bb          	negw	a5,s0
    80004518:	00f477b3          	and	a5,s0,a5
    8000451c:	0007851b          	sext.w	a0,a5
    80004520:	013565b3          	or	a1,a0,s3
    80004524:	00a96633          	or	a2,s2,a0
    80004528:	0015959b          	slliw	a1,a1,0x1
    8000452c:	0016561b          	srliw	a2,a2,0x1
    80004530:	00956533          	or	a0,a0,s1
    80004534:	40f4043b          	subw	s0,s0,a5
    80004538:	f8dff0ef          	jal	ra,800044c4 <dfs>
    8000453c:	01450a3b          	addw	s4,a0,s4
    80004540:	fc041ae3          	bnez	s0,80004514 <dfs+0x50>
    80004544:	02813083          	ld	ra,40(sp)
    80004548:	02013403          	ld	s0,32(sp)
    8000454c:	01813483          	ld	s1,24(sp)
    80004550:	01013903          	ld	s2,16(sp)
    80004554:	00813983          	ld	s3,8(sp)
    80004558:	000a0513          	mv	a0,s4
    8000455c:	00013a03          	ld	s4,0(sp)
    80004560:	03010113          	addi	sp,sp,48
    80004564:	00008067          	ret

0000000080004568 <bench_queen_prepare>:
    80004568:	00002797          	auipc	a5,0x2
    8000456c:	e187b783          	ld	a5,-488(a5) # 80006380 <setting>
    80004570:	0007a703          	lw	a4,0(a5)
    80004574:	00002797          	auipc	a5,0x2
    80004578:	de07aa23          	sw	zero,-524(a5) # 80006368 <ans>
    8000457c:	00100793          	li	a5,1
    80004580:	00e797bb          	sllw	a5,a5,a4
    80004584:	fff7879b          	addiw	a5,a5,-1
    80004588:	00002717          	auipc	a4,0x2
    8000458c:	dcf72e23          	sw	a5,-548(a4) # 80006364 <FULL>
    80004590:	00008067          	ret

0000000080004594 <bench_queen_run>:
    80004594:	ff010113          	addi	sp,sp,-16
    80004598:	00000613          	li	a2,0
    8000459c:	00000593          	li	a1,0
    800045a0:	00000513          	li	a0,0
    800045a4:	00113423          	sd	ra,8(sp)
    800045a8:	f1dff0ef          	jal	ra,800044c4 <dfs>
    800045ac:	00813083          	ld	ra,8(sp)
    800045b0:	00002797          	auipc	a5,0x2
    800045b4:	daa7ac23          	sw	a0,-584(a5) # 80006368 <ans>
    800045b8:	01010113          	addi	sp,sp,16
    800045bc:	00008067          	ret

00000000800045c0 <bench_queen_validate>:
    800045c0:	00002797          	auipc	a5,0x2
    800045c4:	dc07b783          	ld	a5,-576(a5) # 80006380 <setting>
    800045c8:	0187a503          	lw	a0,24(a5)
    800045cc:	00002797          	auipc	a5,0x2
    800045d0:	d9c7a783          	lw	a5,-612(a5) # 80006368 <ans>
    800045d4:	40f50533          	sub	a0,a0,a5
    800045d8:	00153513          	seqz	a0,a0
    800045dc:	00008067          	ret

00000000800045e0 <putch>:
    800045e0:	00500793          	li	a5,5
    800045e4:	01d79793          	slli	a5,a5,0x1d
    800045e8:	3ea78c23          	sb	a0,1016(a5)
    800045ec:	00008067          	ret

00000000800045f0 <halt>:
    800045f0:	00050513          	mv	a0,a0
    800045f4:	00100073          	ebreak
    800045f8:	0000006f          	j	800045f8 <halt+0x8>

00000000800045fc <_trm_init>:
    800045fc:	ff010113          	addi	sp,sp,-16
    80004600:	00001517          	auipc	a0,0x1
    80004604:	09050513          	addi	a0,a0,144 # 80005690 <mainargs>
    80004608:	00113423          	sd	ra,8(sp)
    8000460c:	e48fd0ef          	jal	ra,80001c54 <main>
    80004610:	00050513          	mv	a0,a0
    80004614:	00100073          	ebreak
    80004618:	0000006f          	j	80004618 <_trm_init+0x1c>

000000008000461c <__am_timer_config>:
    8000461c:	00100793          	li	a5,1
    80004620:	00f50023          	sb	a5,0(a0)
    80004624:	00f500a3          	sb	a5,1(a0)
    80004628:	00008067          	ret

000000008000462c <__am_input_config>:
    8000462c:	00100793          	li	a5,1
    80004630:	00f50023          	sb	a5,0(a0)
    80004634:	00008067          	ret

0000000080004638 <__am_uart_config>:
    80004638:	00050023          	sb	zero,0(a0)
    8000463c:	00008067          	ret

0000000080004640 <__am_net_config>:
    80004640:	00050023          	sb	zero,0(a0)
    80004644:	00008067          	ret

0000000080004648 <fail>:
    80004648:	ff010113          	addi	sp,sp,-16
    8000464c:	00813023          	sd	s0,0(sp)
    80004650:	00113423          	sd	ra,8(sp)
    80004654:	00001417          	auipc	s0,0x1
    80004658:	fb440413          	addi	s0,s0,-76 # 80005608 <r+0x728>
    8000465c:	04100513          	li	a0,65
    80004660:	00140413          	addi	s0,s0,1
    80004664:	f7dff0ef          	jal	ra,800045e0 <putch>
    80004668:	00044503          	lbu	a0,0(s0)
    8000466c:	fe051ae3          	bnez	a0,80004660 <fail+0x18>
    80004670:	00001417          	auipc	s0,0x1
    80004674:	fa840413          	addi	s0,s0,-88 # 80005618 <r+0x738>
    80004678:	06100513          	li	a0,97
    8000467c:	00140413          	addi	s0,s0,1
    80004680:	f61ff0ef          	jal	ra,800045e0 <putch>
    80004684:	00044503          	lbu	a0,0(s0)
    80004688:	fe051ae3          	bnez	a0,8000467c <fail+0x34>
    8000468c:	00001417          	auipc	s0,0x1
    80004690:	fac40413          	addi	s0,s0,-84 # 80005638 <r+0x758>
    80004694:	02000513          	li	a0,32
    80004698:	00140413          	addi	s0,s0,1
    8000469c:	f45ff0ef          	jal	ra,800045e0 <putch>
    800046a0:	00044503          	lbu	a0,0(s0)
    800046a4:	fe051ae3          	bnez	a0,80004698 <fail+0x50>
    800046a8:	00100513          	li	a0,1
    800046ac:	f45ff0ef          	jal	ra,800045f0 <halt>

00000000800046b0 <ioe_init>:
    800046b0:	ff010113          	addi	sp,sp,-16
    800046b4:	00113423          	sd	ra,8(sp)
    800046b8:	00001797          	auipc	a5,0x1
    800046bc:	78878793          	addi	a5,a5,1928 # 80005e40 <lut>
    800046c0:	00002697          	auipc	a3,0x2
    800046c4:	b8068693          	addi	a3,a3,-1152 # 80006240 <buf.1548>
    800046c8:	00000617          	auipc	a2,0x0
    800046cc:	f8060613          	addi	a2,a2,-128 # 80004648 <fail>
    800046d0:	00c0006f          	j	800046dc <ioe_init+0x2c>
    800046d4:	00878793          	addi	a5,a5,8
    800046d8:	00d78c63          	beq	a5,a3,800046f0 <ioe_init+0x40>
    800046dc:	0007b703          	ld	a4,0(a5)
    800046e0:	fe071ae3          	bnez	a4,800046d4 <ioe_init+0x24>
    800046e4:	00c7b023          	sd	a2,0(a5)
    800046e8:	00878793          	addi	a5,a5,8
    800046ec:	fed798e3          	bne	a5,a3,800046dc <ioe_init+0x2c>
    800046f0:	09c000ef          	jal	ra,8000478c <__am_gpu_init>
    800046f4:	034000ef          	jal	ra,80004728 <__am_timer_init>
    800046f8:	0d8000ef          	jal	ra,800047d0 <__am_audio_init>
    800046fc:	00813083          	ld	ra,8(sp)
    80004700:	00100513          	li	a0,1
    80004704:	01010113          	addi	sp,sp,16
    80004708:	00008067          	ret

000000008000470c <ioe_read>:
    8000470c:	00351793          	slli	a5,a0,0x3
    80004710:	00001517          	auipc	a0,0x1
    80004714:	73050513          	addi	a0,a0,1840 # 80005e40 <lut>
    80004718:	00f50533          	add	a0,a0,a5
    8000471c:	00053303          	ld	t1,0(a0)
    80004720:	00058513          	mv	a0,a1
    80004724:	00030067          	jr	t1

0000000080004728 <__am_timer_init>:
    80004728:	00500793          	li	a5,5
    8000472c:	01d79793          	slli	a5,a5,0x1d
    80004730:	0487b783          	ld	a5,72(a5)
    80004734:	00002717          	auipc	a4,0x2
    80004738:	c2f73e23          	sd	a5,-964(a4) # 80006370 <boot_time>
    8000473c:	00008067          	ret

0000000080004740 <__am_timer_uptime>:
    80004740:	00500793          	li	a5,5
    80004744:	01d79793          	slli	a5,a5,0x1d
    80004748:	0487b783          	ld	a5,72(a5)
    8000474c:	00002717          	auipc	a4,0x2
    80004750:	c2473703          	ld	a4,-988(a4) # 80006370 <boot_time>
    80004754:	40e787b3          	sub	a5,a5,a4
    80004758:	00f53023          	sd	a5,0(a0)
    8000475c:	00008067          	ret

0000000080004760 <__am_timer_rtc>:
    80004760:	76c00793          	li	a5,1900
    80004764:	00052a23          	sw	zero,20(a0)
    80004768:	00052823          	sw	zero,16(a0)
    8000476c:	00052623          	sw	zero,12(a0)
    80004770:	00052423          	sw	zero,8(a0)
    80004774:	00052223          	sw	zero,4(a0)
    80004778:	00f52023          	sw	a5,0(a0)
    8000477c:	00008067          	ret

0000000080004780 <__am_input_keybrd>:
    80004780:	00050023          	sb	zero,0(a0)
    80004784:	00052223          	sw	zero,4(a0)
    80004788:	00008067          	ret

000000008000478c <__am_gpu_init>:
    8000478c:	00008067          	ret

0000000080004790 <__am_gpu_config>:
    80004790:	00100793          	li	a5,1
    80004794:	00f51023          	sh	a5,0(a0)
    80004798:	00052223          	sw	zero,4(a0)
    8000479c:	00052423          	sw	zero,8(a0)
    800047a0:	00052623          	sw	zero,12(a0)
    800047a4:	00008067          	ret

00000000800047a8 <__am_gpu_fbdraw>:
    800047a8:	01854783          	lbu	a5,24(a0)
    800047ac:	00078a63          	beqz	a5,800047c0 <__am_gpu_fbdraw+0x18>
    800047b0:	00500793          	li	a5,5
    800047b4:	01d79793          	slli	a5,a5,0x1d
    800047b8:	00100713          	li	a4,1
    800047bc:	10e7a223          	sw	a4,260(a5)
    800047c0:	00008067          	ret

00000000800047c4 <__am_gpu_status>:
    800047c4:	00100793          	li	a5,1
    800047c8:	00f50023          	sb	a5,0(a0)
    800047cc:	00008067          	ret

00000000800047d0 <__am_audio_init>:
    800047d0:	00008067          	ret

00000000800047d4 <__am_audio_config>:
    800047d4:	00050023          	sb	zero,0(a0)
    800047d8:	00008067          	ret

00000000800047dc <__am_audio_ctrl>:
    800047dc:	00008067          	ret

00000000800047e0 <__am_audio_status>:
    800047e0:	00052023          	sw	zero,0(a0)
    800047e4:	00008067          	ret

00000000800047e8 <__am_audio_play>:
    800047e8:	00008067          	ret

00000000800047ec <__am_disk_config>:
    800047ec:	00050023          	sb	zero,0(a0)
    800047f0:	00008067          	ret

00000000800047f4 <__am_disk_status>:
    800047f4:	00008067          	ret

00000000800047f8 <__am_disk_blkio>:
    800047f8:	00008067          	ret

00000000800047fc <strlen>:
    800047fc:	00054783          	lbu	a5,0(a0)
    80004800:	00050713          	mv	a4,a0
    80004804:	00000513          	li	a0,0
    80004808:	00078c63          	beqz	a5,80004820 <strlen+0x24>
    8000480c:	00150513          	addi	a0,a0,1
    80004810:	00a707b3          	add	a5,a4,a0
    80004814:	0007c783          	lbu	a5,0(a5)
    80004818:	fe079ae3          	bnez	a5,8000480c <strlen+0x10>
    8000481c:	00008067          	ret
    80004820:	00008067          	ret

0000000080004824 <strcmp>:
    80004824:	00054683          	lbu	a3,0(a0)
    80004828:	0005c703          	lbu	a4,0(a1)
    8000482c:	00150793          	addi	a5,a0,1
    80004830:	00158593          	addi	a1,a1,1
    80004834:	02068063          	beqz	a3,80004854 <strcmp+0x30>
    80004838:	02070463          	beqz	a4,80004860 <strcmp+0x3c>
    8000483c:	02e69863          	bne	a3,a4,8000486c <strcmp+0x48>
    80004840:	0007c683          	lbu	a3,0(a5)
    80004844:	0005c703          	lbu	a4,0(a1)
    80004848:	00178793          	addi	a5,a5,1
    8000484c:	00158593          	addi	a1,a1,1
    80004850:	fe0694e3          	bnez	a3,80004838 <strcmp+0x14>
    80004854:	00000513          	li	a0,0
    80004858:	40e5053b          	subw	a0,a0,a4
    8000485c:	00008067          	ret
    80004860:	0006851b          	sext.w	a0,a3
    80004864:	40e5053b          	subw	a0,a0,a4
    80004868:	00008067          	ret
    8000486c:	40e6853b          	subw	a0,a3,a4
    80004870:	00008067          	ret

0000000080004874 <int2str>:
    80004874:	00050613          	mv	a2,a0
    80004878:	00051e63          	bnez	a0,80004894 <int2str+0x20>
    8000487c:	03000793          	li	a5,48
    80004880:	00158893          	addi	a7,a1,1
    80004884:	00f58023          	sb	a5,0(a1)
    80004888:	00100513          	li	a0,1
    8000488c:	00088023          	sb	zero,0(a7)
    80004890:	00008067          	ret
    80004894:	0a055e63          	bgez	a0,80004950 <int2str+0xdc>
    80004898:	02d00793          	li	a5,45
    8000489c:	00f58023          	sb	a5,0(a1)
    800048a0:	00100f13          	li	t5,1
    800048a4:	00000693          	li	a3,0
    800048a8:	00100e93          	li	t4,1
    800048ac:	01e58733          	add	a4,a1,t5
    800048b0:	00070813          	mv	a6,a4
    800048b4:	000f0513          	mv	a0,t5
    800048b8:	00a00893          	li	a7,10
    800048bc:	03000e13          	li	t3,48
    800048c0:	031667bb          	remw	a5,a2,a7
    800048c4:	0ff7f793          	andi	a5,a5,255
    800048c8:	40fe033b          	subw	t1,t3,a5
    800048cc:	0307879b          	addiw	a5,a5,48
    800048d0:	0ff7f793          	andi	a5,a5,255
    800048d4:	000e8463          	beqz	t4,800048dc <int2str+0x68>
    800048d8:	0ff37793          	andi	a5,t1,255
    800048dc:	0316463b          	divw	a2,a2,a7
    800048e0:	00f80023          	sb	a5,0(a6)
    800048e4:	0015051b          	addiw	a0,a0,1
    800048e8:	00180813          	addi	a6,a6,1
    800048ec:	fc061ae3          	bnez	a2,800048c0 <int2str+0x4c>
    800048f0:	00af07bb          	addw	a5,t5,a0
    800048f4:	4017d61b          	sraiw	a2,a5,0x1
    800048f8:	00a588b3          	add	a7,a1,a0
    800048fc:	f8cf58e3          	bge	t5,a2,8000488c <int2str+0x18>
    80004900:	fff6081b          	addiw	a6,a2,-1
    80004904:	01e687b3          	add	a5,a3,t5
    80004908:	41e806bb          	subw	a3,a6,t5
    8000490c:	00158613          	addi	a2,a1,1
    80004910:	02069693          	slli	a3,a3,0x20
    80004914:	40f507b3          	sub	a5,a0,a5
    80004918:	01e60633          	add	a2,a2,t5
    8000491c:	0206d693          	srli	a3,a3,0x20
    80004920:	00f585b3          	add	a1,a1,a5
    80004924:	00d60633          	add	a2,a2,a3
    80004928:	00070793          	mv	a5,a4
    8000492c:	0007c683          	lbu	a3,0(a5)
    80004930:	0005c703          	lbu	a4,0(a1)
    80004934:	00178793          	addi	a5,a5,1
    80004938:	00d58023          	sb	a3,0(a1)
    8000493c:	fee78fa3          	sb	a4,-1(a5)
    80004940:	fff58593          	addi	a1,a1,-1
    80004944:	fec794e3          	bne	a5,a2,8000492c <int2str+0xb8>
    80004948:	00088023          	sb	zero,0(a7)
    8000494c:	00008067          	ret
    80004950:	00000f13          	li	t5,0
    80004954:	00100693          	li	a3,1
    80004958:	00000e93          	li	t4,0
    8000495c:	f51ff06f          	j	800048ac <int2str+0x38>

0000000080004960 <printf>:
    80004960:	97010113          	addi	sp,sp,-1680
    80004964:	66f13c23          	sd	a5,1656(sp)
    80004968:	65810793          	addi	a5,sp,1624
    8000496c:	63413023          	sd	s4,1568(sp)
    80004970:	64113423          	sd	ra,1608(sp)
    80004974:	64813023          	sd	s0,1600(sp)
    80004978:	62913c23          	sd	s1,1592(sp)
    8000497c:	63213823          	sd	s2,1584(sp)
    80004980:	63313423          	sd	s3,1576(sp)
    80004984:	61513c23          	sd	s5,1560(sp)
    80004988:	61613823          	sd	s6,1552(sp)
    8000498c:	61713423          	sd	s7,1544(sp)
    80004990:	61813023          	sd	s8,1536(sp)
    80004994:	00050a13          	mv	s4,a0
    80004998:	64b13c23          	sd	a1,1624(sp)
    8000499c:	66c13023          	sd	a2,1632(sp)
    800049a0:	66d13423          	sd	a3,1640(sp)
    800049a4:	66e13823          	sd	a4,1648(sp)
    800049a8:	69013023          	sd	a6,1664(sp)
    800049ac:	69113423          	sd	a7,1672(sp)
    800049b0:	00f13023          	sd	a5,0(sp)
    800049b4:	e49ff0ef          	jal	ra,800047fc <strlen>
    800049b8:	1a050e63          	beqz	a0,80004b74 <printf+0x214>
    800049bc:	00050a93          	mv	s5,a0
    800049c0:	00000493          	li	s1,0
    800049c4:	00000913          	li	s2,0
    800049c8:	00000793          	li	a5,0
    800049cc:	02500b13          	li	s6,37
    800049d0:	06400b93          	li	s7,100
    800049d4:	07300c13          	li	s8,115
    800049d8:	00fa0433          	add	s0,s4,a5
    800049dc:	00044783          	lbu	a5,0(s0)
    800049e0:	0019099b          	addiw	s3,s2,1
    800049e4:	09678663          	beq	a5,s6,80004a70 <printf+0x110>
    800049e8:	60010713          	addi	a4,sp,1536
    800049ec:	00970733          	add	a4,a4,s1
    800049f0:	c0f70023          	sb	a5,-1024(a4)
    800049f4:	00098913          	mv	s2,s3
    800049f8:	0014849b          	addiw	s1,s1,1
    800049fc:	00098793          	mv	a5,s3
    80004a00:	fd57ece3          	bltu	a5,s5,800049d8 <printf+0x78>
    80004a04:	60010793          	addi	a5,sp,1536
    80004a08:	009787b3          	add	a5,a5,s1
    80004a0c:	c0078023          	sb	zero,-1024(a5)
    80004a10:	02048663          	beqz	s1,80004a3c <printf+0xdc>
    80004a14:	fff4891b          	addiw	s2,s1,-1
    80004a18:	02091913          	slli	s2,s2,0x20
    80004a1c:	02095913          	srli	s2,s2,0x20
    80004a20:	20110793          	addi	a5,sp,513
    80004a24:	20010413          	addi	s0,sp,512
    80004a28:	00f90933          	add	s2,s2,a5
    80004a2c:	00044503          	lbu	a0,0(s0)
    80004a30:	00140413          	addi	s0,s0,1
    80004a34:	badff0ef          	jal	ra,800045e0 <putch>
    80004a38:	fe891ae3          	bne	s2,s0,80004a2c <printf+0xcc>
    80004a3c:	64813083          	ld	ra,1608(sp)
    80004a40:	64013403          	ld	s0,1600(sp)
    80004a44:	63013903          	ld	s2,1584(sp)
    80004a48:	62813983          	ld	s3,1576(sp)
    80004a4c:	62013a03          	ld	s4,1568(sp)
    80004a50:	61813a83          	ld	s5,1560(sp)
    80004a54:	61013b03          	ld	s6,1552(sp)
    80004a58:	60813b83          	ld	s7,1544(sp)
    80004a5c:	60013c03          	ld	s8,1536(sp)
    80004a60:	00048513          	mv	a0,s1
    80004a64:	63813483          	ld	s1,1592(sp)
    80004a68:	69010113          	addi	sp,sp,1680
    80004a6c:	00008067          	ret
    80004a70:	000a0513          	mv	a0,s4
    80004a74:	d89ff0ef          	jal	ra,800047fc <strlen>
    80004a78:	00a9e663          	bltu	s3,a0,80004a84 <printf+0x124>
    80004a7c:	00044783          	lbu	a5,0(s0)
    80004a80:	f69ff06f          	j	800049e8 <printf+0x88>
    80004a84:	00144783          	lbu	a5,1(s0)
    80004a88:	07778e63          	beq	a5,s7,80004b04 <printf+0x1a4>
    80004a8c:	03878463          	beq	a5,s8,80004ab4 <printf+0x154>
    80004a90:	0d679e63          	bne	a5,s6,80004b6c <printf+0x20c>
    80004a94:	60010793          	addi	a5,sp,1536
    80004a98:	009787b3          	add	a5,a5,s1
    80004a9c:	0029091b          	addiw	s2,s2,2
    80004aa0:	c1678023          	sb	s6,-1024(a5)
    80004aa4:	00090793          	mv	a5,s2
    80004aa8:	0014849b          	addiw	s1,s1,1
    80004aac:	f357e6e3          	bltu	a5,s5,800049d8 <printf+0x78>
    80004ab0:	f55ff06f          	j	80004a04 <printf+0xa4>
    80004ab4:	00013703          	ld	a4,0(sp)
    80004ab8:	0029091b          	addiw	s2,s2,2
    80004abc:	00090793          	mv	a5,s2
    80004ac0:	00073683          	ld	a3,0(a4)
    80004ac4:	00870713          	addi	a4,a4,8
    80004ac8:	00e13023          	sd	a4,0(sp)
    80004acc:	0006c603          	lbu	a2,0(a3)
    80004ad0:	f20608e3          	beqz	a2,80004a00 <printf+0xa0>
    80004ad4:	0014871b          	addiw	a4,s1,1
    80004ad8:	00168693          	addi	a3,a3,1
    80004adc:	20010593          	addi	a1,sp,512
    80004ae0:	00e585b3          	add	a1,a1,a4
    80004ae4:	fec58fa3          	sb	a2,-1(a1)
    80004ae8:	0006c603          	lbu	a2,0(a3)
    80004aec:	0007049b          	sext.w	s1,a4
    80004af0:	00168693          	addi	a3,a3,1
    80004af4:	00170713          	addi	a4,a4,1
    80004af8:	fe0612e3          	bnez	a2,80004adc <printf+0x17c>
    80004afc:	ed57eee3          	bltu	a5,s5,800049d8 <printf+0x78>
    80004b00:	f05ff06f          	j	80004a04 <printf+0xa4>
    80004b04:	00013783          	ld	a5,0(sp)
    80004b08:	00810593          	addi	a1,sp,8
    80004b0c:	0007a503          	lw	a0,0(a5)
    80004b10:	00878793          	addi	a5,a5,8
    80004b14:	00f13023          	sd	a5,0(sp)
    80004b18:	d5dff0ef          	jal	ra,80004874 <int2str>
    80004b1c:	04a05063          	blez	a0,80004b5c <printf+0x1fc>
    80004b20:	fff5061b          	addiw	a2,a0,-1
    80004b24:	02061613          	slli	a2,a2,0x20
    80004b28:	02065613          	srli	a2,a2,0x20
    80004b2c:	20010713          	addi	a4,sp,512
    80004b30:	00910693          	addi	a3,sp,9
    80004b34:	00810793          	addi	a5,sp,8
    80004b38:	00970733          	add	a4,a4,s1
    80004b3c:	0005051b          	sext.w	a0,a0
    80004b40:	00c68633          	add	a2,a3,a2
    80004b44:	0007c683          	lbu	a3,0(a5)
    80004b48:	00178793          	addi	a5,a5,1
    80004b4c:	00170713          	addi	a4,a4,1
    80004b50:	fed70fa3          	sb	a3,-1(a4)
    80004b54:	fec798e3          	bne	a5,a2,80004b44 <printf+0x1e4>
    80004b58:	00a484bb          	addw	s1,s1,a0
    80004b5c:	0029091b          	addiw	s2,s2,2
    80004b60:	00090793          	mv	a5,s2
    80004b64:	e757eae3          	bltu	a5,s5,800049d8 <printf+0x78>
    80004b68:	e9dff06f          	j	80004a04 <printf+0xa4>
    80004b6c:	fff00493          	li	s1,-1
    80004b70:	ecdff06f          	j	80004a3c <printf+0xdc>
    80004b74:	00000493          	li	s1,0
    80004b78:	ec5ff06f          	j	80004a3c <printf+0xdc>

0000000080004b7c <sprintf>:
    80004b7c:	d7010113          	addi	sp,sp,-656
    80004b80:	23413823          	sd	s4,560(sp)
    80004b84:	26f13c23          	sd	a5,632(sp)
    80004b88:	00050a13          	mv	s4,a0
    80004b8c:	26010793          	addi	a5,sp,608
    80004b90:	00058513          	mv	a0,a1
    80004b94:	23513423          	sd	s5,552(sp)
    80004b98:	24113c23          	sd	ra,600(sp)
    80004b9c:	24813823          	sd	s0,592(sp)
    80004ba0:	24913423          	sd	s1,584(sp)
    80004ba4:	25213023          	sd	s2,576(sp)
    80004ba8:	23313c23          	sd	s3,568(sp)
    80004bac:	23613023          	sd	s6,544(sp)
    80004bb0:	21713c23          	sd	s7,536(sp)
    80004bb4:	21813823          	sd	s8,528(sp)
    80004bb8:	21913423          	sd	s9,520(sp)
    80004bbc:	00058a93          	mv	s5,a1
    80004bc0:	26c13023          	sd	a2,608(sp)
    80004bc4:	26d13423          	sd	a3,616(sp)
    80004bc8:	26e13823          	sd	a4,624(sp)
    80004bcc:	29013023          	sd	a6,640(sp)
    80004bd0:	29113423          	sd	a7,648(sp)
    80004bd4:	00f13023          	sd	a5,0(sp)
    80004bd8:	c25ff0ef          	jal	ra,800047fc <strlen>
    80004bdc:	18050063          	beqz	a0,80004d5c <sprintf+0x1e0>
    80004be0:	00050b13          	mv	s6,a0
    80004be4:	00000493          	li	s1,0
    80004be8:	00000913          	li	s2,0
    80004bec:	00000793          	li	a5,0
    80004bf0:	02500c93          	li	s9,37
    80004bf4:	06400b93          	li	s7,100
    80004bf8:	07300c13          	li	s8,115
    80004bfc:	00fa8433          	add	s0,s5,a5
    80004c00:	00044783          	lbu	a5,0(s0)
    80004c04:	0019099b          	addiw	s3,s2,1
    80004c08:	05978e63          	beq	a5,s9,80004c64 <sprintf+0xe8>
    80004c0c:	009a0733          	add	a4,s4,s1
    80004c10:	00f70023          	sb	a5,0(a4)
    80004c14:	00098913          	mv	s2,s3
    80004c18:	0014849b          	addiw	s1,s1,1
    80004c1c:	00098793          	mv	a5,s3
    80004c20:	fd67eee3          	bltu	a5,s6,80004bfc <sprintf+0x80>
    80004c24:	009a0a33          	add	s4,s4,s1
    80004c28:	000a0023          	sb	zero,0(s4)
    80004c2c:	25813083          	ld	ra,600(sp)
    80004c30:	25013403          	ld	s0,592(sp)
    80004c34:	24013903          	ld	s2,576(sp)
    80004c38:	23813983          	ld	s3,568(sp)
    80004c3c:	23013a03          	ld	s4,560(sp)
    80004c40:	22813a83          	ld	s5,552(sp)
    80004c44:	22013b03          	ld	s6,544(sp)
    80004c48:	21813b83          	ld	s7,536(sp)
    80004c4c:	21013c03          	ld	s8,528(sp)
    80004c50:	20813c83          	ld	s9,520(sp)
    80004c54:	00048513          	mv	a0,s1
    80004c58:	24813483          	ld	s1,584(sp)
    80004c5c:	29010113          	addi	sp,sp,656
    80004c60:	00008067          	ret
    80004c64:	000a8513          	mv	a0,s5
    80004c68:	b95ff0ef          	jal	ra,800047fc <strlen>
    80004c6c:	00a9e663          	bltu	s3,a0,80004c78 <sprintf+0xfc>
    80004c70:	00044783          	lbu	a5,0(s0)
    80004c74:	f99ff06f          	j	80004c0c <sprintf+0x90>
    80004c78:	00144783          	lbu	a5,1(s0)
    80004c7c:	07778a63          	beq	a5,s7,80004cf0 <sprintf+0x174>
    80004c80:	03878263          	beq	a5,s8,80004ca4 <sprintf+0x128>
    80004c84:	0d979863          	bne	a5,s9,80004d54 <sprintf+0x1d8>
    80004c88:	009a07b3          	add	a5,s4,s1
    80004c8c:	0029091b          	addiw	s2,s2,2
    80004c90:	01978023          	sb	s9,0(a5)
    80004c94:	00090793          	mv	a5,s2
    80004c98:	0014849b          	addiw	s1,s1,1
    80004c9c:	f767e0e3          	bltu	a5,s6,80004bfc <sprintf+0x80>
    80004ca0:	f85ff06f          	j	80004c24 <sprintf+0xa8>
    80004ca4:	00013703          	ld	a4,0(sp)
    80004ca8:	0029091b          	addiw	s2,s2,2
    80004cac:	00090793          	mv	a5,s2
    80004cb0:	00073683          	ld	a3,0(a4)
    80004cb4:	00870713          	addi	a4,a4,8
    80004cb8:	00e13023          	sd	a4,0(sp)
    80004cbc:	0006c603          	lbu	a2,0(a3)
    80004cc0:	f60600e3          	beqz	a2,80004c20 <sprintf+0xa4>
    80004cc4:	0014871b          	addiw	a4,s1,1
    80004cc8:	00168693          	addi	a3,a3,1
    80004ccc:	00ea05b3          	add	a1,s4,a4
    80004cd0:	fec58fa3          	sb	a2,-1(a1)
    80004cd4:	0006c603          	lbu	a2,0(a3)
    80004cd8:	0007049b          	sext.w	s1,a4
    80004cdc:	00168693          	addi	a3,a3,1
    80004ce0:	00170713          	addi	a4,a4,1
    80004ce4:	fe0614e3          	bnez	a2,80004ccc <sprintf+0x150>
    80004ce8:	f167eae3          	bltu	a5,s6,80004bfc <sprintf+0x80>
    80004cec:	f39ff06f          	j	80004c24 <sprintf+0xa8>
    80004cf0:	00013783          	ld	a5,0(sp)
    80004cf4:	00810593          	addi	a1,sp,8
    80004cf8:	0007a503          	lw	a0,0(a5)
    80004cfc:	00878793          	addi	a5,a5,8
    80004d00:	00f13023          	sd	a5,0(sp)
    80004d04:	b71ff0ef          	jal	ra,80004874 <int2str>
    80004d08:	02a05e63          	blez	a0,80004d44 <sprintf+0x1c8>
    80004d0c:	fff5061b          	addiw	a2,a0,-1
    80004d10:	02061613          	slli	a2,a2,0x20
    80004d14:	02065613          	srli	a2,a2,0x20
    80004d18:	00910693          	addi	a3,sp,9
    80004d1c:	00810793          	addi	a5,sp,8
    80004d20:	009a0733          	add	a4,s4,s1
    80004d24:	0005051b          	sext.w	a0,a0
    80004d28:	00c68633          	add	a2,a3,a2
    80004d2c:	0007c683          	lbu	a3,0(a5)
    80004d30:	00178793          	addi	a5,a5,1
    80004d34:	00170713          	addi	a4,a4,1
    80004d38:	fed70fa3          	sb	a3,-1(a4)
    80004d3c:	fec798e3          	bne	a5,a2,80004d2c <sprintf+0x1b0>
    80004d40:	00a484bb          	addw	s1,s1,a0
    80004d44:	0029091b          	addiw	s2,s2,2
    80004d48:	00090793          	mv	a5,s2
    80004d4c:	eb67e8e3          	bltu	a5,s6,80004bfc <sprintf+0x80>
    80004d50:	ed5ff06f          	j	80004c24 <sprintf+0xa8>
    80004d54:	fff00493          	li	s1,-1
    80004d58:	ed5ff06f          	j	80004c2c <sprintf+0xb0>
    80004d5c:	00000493          	li	s1,0
    80004d60:	ec9ff06f          	j	80004c28 <sprintf+0xac>
