
/home/porterlu/ysyx-workbench/am-kernels/benchmarks/dhrystone/build/dhrystone-riscv64-npc.elf:     file format elf64-littleriscv


Disassembly of section .text:

0000000080000000 <_start>:
    80000000:	00000413          	li	s0,0
    80000004:	0000d117          	auipc	sp,0xd
    80000008:	ffc10113          	addi	sp,sp,-4 # 8000d000 <_end>
    8000000c:	1dd000ef          	jal	ra,800009e8 <_trm_init>

0000000080000010 <Proc_6>:
    80000010:	00200713          	li	a4,2
    80000014:	04e50263          	beq	a0,a4,80000058 <Proc_6+0x48>
    80000018:	00300793          	li	a5,3
    8000001c:	00f5a023          	sw	a5,0(a1)
    80000020:	00100793          	li	a5,1
    80000024:	00f50c63          	beq	a0,a5,8000003c <Proc_6+0x2c>
    80000028:	02a7f263          	bgeu	a5,a0,8000004c <Proc_6+0x3c>
    8000002c:	00400793          	li	a5,4
    80000030:	02f51263          	bne	a0,a5,80000054 <Proc_6+0x44>
    80000034:	00e5a023          	sw	a4,0(a1)
    80000038:	00008067          	ret
    8000003c:	00004717          	auipc	a4,0x4
    80000040:	6a472703          	lw	a4,1700(a4) # 800046e0 <Int_Glob>
    80000044:	06400793          	li	a5,100
    80000048:	fee7d8e3          	bge	a5,a4,80000038 <Proc_6+0x28>
    8000004c:	0005a023          	sw	zero,0(a1)
    80000050:	00008067          	ret
    80000054:	00008067          	ret
    80000058:	00100793          	li	a5,1
    8000005c:	00f5a023          	sw	a5,0(a1)
    80000060:	00008067          	ret

0000000080000064 <Proc_1>:
    80000064:	fe010113          	addi	sp,sp,-32
    80000068:	00913423          	sd	s1,8(sp)
    8000006c:	00004497          	auipc	s1,0x4
    80000070:	67c48493          	addi	s1,s1,1660 # 800046e8 <Ptr_Glob>
    80000074:	0004b783          	ld	a5,0(s1)
    80000078:	00813823          	sd	s0,16(sp)
    8000007c:	00053403          	ld	s0,0(a0)
    80000080:	0007b683          	ld	a3,0(a5)
    80000084:	0307b703          	ld	a4,48(a5)
    80000088:	0087b303          	ld	t1,8(a5)
    8000008c:	0107b883          	ld	a7,16(a5)
    80000090:	0187b803          	ld	a6,24(a5)
    80000094:	0207b583          	ld	a1,32(a5)
    80000098:	0287b603          	ld	a2,40(a5)
    8000009c:	00113c23          	sd	ra,24(sp)
    800000a0:	00d43023          	sd	a3,0(s0)
    800000a4:	00053683          	ld	a3,0(a0)
    800000a8:	00643423          	sd	t1,8(s0)
    800000ac:	01143823          	sd	a7,16(s0)
    800000b0:	02e43823          	sd	a4,48(s0)
    800000b4:	01043c23          	sd	a6,24(s0)
    800000b8:	00500713          	li	a4,5
    800000bc:	02b43023          	sd	a1,32(s0)
    800000c0:	02c43423          	sd	a2,40(s0)
    800000c4:	00e52823          	sw	a4,16(a0)
    800000c8:	00d43023          	sd	a3,0(s0)
    800000cc:	0007b683          	ld	a3,0(a5)
    800000d0:	00004797          	auipc	a5,0x4
    800000d4:	6107a783          	lw	a5,1552(a5) # 800046e0 <Int_Glob>
    800000d8:	00e42823          	sw	a4,16(s0)
    800000dc:	00d43023          	sd	a3,0(s0)
    800000e0:	0004b703          	ld	a4,0(s1)
    800000e4:	00c7879b          	addiw	a5,a5,12
    800000e8:	00f72823          	sw	a5,16(a4)
    800000ec:	00842783          	lw	a5,8(s0)
    800000f0:	04078a63          	beqz	a5,80000144 <Proc_1+0xe0>
    800000f4:	00053783          	ld	a5,0(a0)
    800000f8:	01813083          	ld	ra,24(sp)
    800000fc:	01013403          	ld	s0,16(sp)
    80000100:	0007b883          	ld	a7,0(a5)
    80000104:	0087b803          	ld	a6,8(a5)
    80000108:	0107b583          	ld	a1,16(a5)
    8000010c:	0187b603          	ld	a2,24(a5)
    80000110:	0207b683          	ld	a3,32(a5)
    80000114:	0287b703          	ld	a4,40(a5)
    80000118:	0307b783          	ld	a5,48(a5)
    8000011c:	01153023          	sd	a7,0(a0)
    80000120:	01053423          	sd	a6,8(a0)
    80000124:	00b53823          	sd	a1,16(a0)
    80000128:	00c53c23          	sd	a2,24(a0)
    8000012c:	02d53023          	sd	a3,32(a0)
    80000130:	02e53423          	sd	a4,40(a0)
    80000134:	02f53823          	sd	a5,48(a0)
    80000138:	00813483          	ld	s1,8(sp)
    8000013c:	02010113          	addi	sp,sp,32
    80000140:	00008067          	ret
    80000144:	00c52503          	lw	a0,12(a0)
    80000148:	00600793          	li	a5,6
    8000014c:	00f42823          	sw	a5,16(s0)
    80000150:	00c40593          	addi	a1,s0,12
    80000154:	ebdff0ef          	jal	ra,80000010 <Proc_6>
    80000158:	0004b703          	ld	a4,0(s1)
    8000015c:	01042783          	lw	a5,16(s0)
    80000160:	01813083          	ld	ra,24(sp)
    80000164:	00073703          	ld	a4,0(a4)
    80000168:	00c7879b          	addiw	a5,a5,12
    8000016c:	00f42823          	sw	a5,16(s0)
    80000170:	00e43023          	sd	a4,0(s0)
    80000174:	01013403          	ld	s0,16(sp)
    80000178:	00813483          	ld	s1,8(sp)
    8000017c:	02010113          	addi	sp,sp,32
    80000180:	00008067          	ret

0000000080000184 <Proc_8>:
    80000184:	0056079b          	addiw	a5,a2,5
    80000188:	0c800713          	li	a4,200
    8000018c:	02e78733          	mul	a4,a5,a4
    80000190:	00078813          	mv	a6,a5
    80000194:	00261613          	slli	a2,a2,0x2
    80000198:	00279793          	slli	a5,a5,0x2
    8000019c:	00f50533          	add	a0,a0,a5
    800001a0:	00d52023          	sw	a3,0(a0)
    800001a4:	00d52223          	sw	a3,4(a0)
    800001a8:	07052c23          	sw	a6,120(a0)
    800001ac:	00c707b3          	add	a5,a4,a2
    800001b0:	00f587b3          	add	a5,a1,a5
    800001b4:	0107a683          	lw	a3,16(a5)
    800001b8:	0107aa23          	sw	a6,20(a5)
    800001bc:	0107ac23          	sw	a6,24(a5)
    800001c0:	0016869b          	addiw	a3,a3,1
    800001c4:	00d7a823          	sw	a3,16(a5)
    800001c8:	00052683          	lw	a3,0(a0)
    800001cc:	00e585b3          	add	a1,a1,a4
    800001d0:	000017b7          	lui	a5,0x1
    800001d4:	00c585b3          	add	a1,a1,a2
    800001d8:	00b785b3          	add	a1,a5,a1
    800001dc:	00500793          	li	a5,5
    800001e0:	fad5aa23          	sw	a3,-76(a1)
    800001e4:	00004717          	auipc	a4,0x4
    800001e8:	4ef72e23          	sw	a5,1276(a4) # 800046e0 <Int_Glob>
    800001ec:	00008067          	ret

00000000800001f0 <Func_2>:
    800001f0:	ff010113          	addi	sp,sp,-16
    800001f4:	00113423          	sd	ra,8(sp)
    800001f8:	00004817          	auipc	a6,0x4
    800001fc:	4ec80813          	addi	a6,a6,1260 # 800046e4 <Ch_1_Glob>
    80000200:	00254783          	lbu	a5,2(a0)
    80000204:	0035c703          	lbu	a4,3(a1)
    80000208:	00084603          	lbu	a2,0(a6)
    8000020c:	00000693          	li	a3,0
    80000210:	02e78c63          	beq	a5,a4,80000248 <Func_2+0x58>
    80000214:	00068463          	beqz	a3,8000021c <Func_2+0x2c>
    80000218:	00c80023          	sb	a2,0(a6)
    8000021c:	2e1000ef          	jal	ra,80000cfc <strcmp>
    80000220:	00000793          	li	a5,0
    80000224:	00a05a63          	blez	a0,80000238 <Func_2+0x48>
    80000228:	00a00793          	li	a5,10
    8000022c:	00004717          	auipc	a4,0x4
    80000230:	4af72a23          	sw	a5,1204(a4) # 800046e0 <Int_Glob>
    80000234:	00100793          	li	a5,1
    80000238:	00813083          	ld	ra,8(sp)
    8000023c:	00078513          	mv	a0,a5
    80000240:	01010113          	addi	sp,sp,16
    80000244:	00008067          	ret
    80000248:	00100693          	li	a3,1
    8000024c:	00078613          	mv	a2,a5
    80000250:	fc1ff06f          	j	80000210 <Func_2+0x20>

0000000080000254 <main>:
    80000254:	f4010113          	addi	sp,sp,-192
    80000258:	0a113c23          	sd	ra,184(sp)
    8000025c:	0a813823          	sd	s0,176(sp)
    80000260:	0a913423          	sd	s1,168(sp)
    80000264:	0b213023          	sd	s2,160(sp)
    80000268:	09313c23          	sd	s3,152(sp)
    8000026c:	09413823          	sd	s4,144(sp)
    80000270:	09513423          	sd	s5,136(sp)
    80000274:	09613023          	sd	s6,128(sp)
    80000278:	07713c23          	sd	s7,120(sp)
    8000027c:	07813823          	sd	s8,112(sp)
    80000280:	07913423          	sd	s9,104(sp)
    80000284:	07a13023          	sd	s10,96(sp)
    80000288:	05b13c23          	sd	s11,88(sp)
    8000028c:	7fc000ef          	jal	ra,80000a88 <ioe_init>
    80000290:	00001697          	auipc	a3,0x1
    80000294:	4d868693          	addi	a3,a3,1240 # 80001768 <free_mem>
    80000298:	0006b783          	ld	a5,0(a3)
    8000029c:	0037f713          	andi	a4,a5,3
    800002a0:	00070c63          	beqz	a4,800002b8 <main+0x64>
    800002a4:	00178713          	addi	a4,a5,1 # 1001 <_entry_offset+0x1001>
    800002a8:	00377613          	andi	a2,a4,3
    800002ac:	00070793          	mv	a5,a4
    800002b0:	00170713          	addi	a4,a4,1
    800002b4:	fe061ae3          	bnez	a2,800002a8 <main+0x54>
    800002b8:	00004717          	auipc	a4,0x4
    800002bc:	42070713          	addi	a4,a4,1056 # 800046d8 <Next_Ptr_Glob>
    800002c0:	00f73023          	sd	a5,0(a4)
    800002c4:	0037f713          	andi	a4,a5,3
    800002c8:	03878513          	addi	a0,a5,56
    800002cc:	00070c63          	beqz	a4,800002e4 <main+0x90>
    800002d0:	03978713          	addi	a4,a5,57
    800002d4:	00377613          	andi	a2,a4,3
    800002d8:	00070513          	mv	a0,a4
    800002dc:	00170713          	addi	a4,a4,1
    800002e0:	fe061ae3          	bnez	a2,800002d4 <main+0x80>
    800002e4:	00004a97          	auipc	s5,0x4
    800002e8:	404a8a93          	addi	s5,s5,1028 # 800046e8 <Ptr_Glob>
    800002ec:	00aab023          	sd	a0,0(s5)
    800002f0:	00f53023          	sd	a5,0(a0)
    800002f4:	00100793          	li	a5,1
    800002f8:	02179793          	slli	a5,a5,0x21
    800002fc:	00f53423          	sd	a5,8(a0)
    80000300:	02800793          	li	a5,40
    80000304:	03850713          	addi	a4,a0,56
    80000308:	00f52823          	sw	a5,16(a0)
    8000030c:	00001597          	auipc	a1,0x1
    80000310:	e7c58593          	addi	a1,a1,-388 # 80001188 <_etext+0x14>
    80000314:	01450513          	addi	a0,a0,20
    80000318:	00e6b023          	sd	a4,0(a3)
    8000031c:	1c1000ef          	jal	ra,80000cdc <strcpy>
    80000320:	00001597          	auipc	a1,0x1
    80000324:	e8858593          	addi	a1,a1,-376 # 800011a8 <_etext+0x34>
    80000328:	01010513          	addi	a0,sp,16
    8000032c:	1b1000ef          	jal	ra,80000cdc <strcpy>
    80000330:	00a00793          	li	a5,10
    80000334:	00002717          	auipc	a4,0x2
    80000338:	c8c70713          	addi	a4,a4,-884 # 80001fc0 <Arr_2_Glob>
    8000033c:	00001597          	auipc	a1,0x1
    80000340:	e8c58593          	addi	a1,a1,-372 # 800011c8 <_etext+0x54>
    80000344:	00001517          	auipc	a0,0x1
    80000348:	e9450513          	addi	a0,a0,-364 # 800011d8 <_etext+0x64>
    8000034c:	64f72e23          	sw	a5,1628(a4)
    80000350:	0007ab37          	lui	s6,0x7a
    80000354:	375000ef          	jal	ra,80000ec8 <printf>
    80000358:	120b0593          	addi	a1,s6,288 # 7a120 <_entry_offset+0x7a120>
    8000035c:	00001517          	auipc	a0,0x1
    80000360:	ea450513          	addi	a0,a0,-348 # 80001200 <_etext+0x8c>
    80000364:	00004797          	auipc	a5,0x4
    80000368:	3807a623          	sw	zero,908(a5) # 800046f0 <Done>
    8000036c:	35d000ef          	jal	ra,80000ec8 <printf>
    80000370:	03010593          	addi	a1,sp,48
    80000374:	00600513          	li	a0,6
    80000378:	768000ef          	jal	ra,80000ae0 <ioe_read>
    8000037c:	03013783          	ld	a5,48(sp)
    80000380:	3e800713          	li	a4,1000
    80000384:	00100c13          	li	s8,1
    80000388:	02e7d7b3          	divu	a5,a5,a4
    8000038c:	00002717          	auipc	a4,0x2
    80000390:	c2c70713          	addi	a4,a4,-980 # 80001fb8 <Begin_Time>
    80000394:	00004497          	auipc	s1,0x4
    80000398:	35048493          	addi	s1,s1,848 # 800046e4 <Ch_1_Glob>
    8000039c:	00004917          	auipc	s2,0x4
    800003a0:	42490913          	addi	s2,s2,1060 # 800047c0 <Bool_Glob>
    800003a4:	00004c97          	auipc	s9,0x4
    800003a8:	341c8c93          	addi	s9,s9,833 # 800046e5 <Ch_2_Glob>
    800003ac:	00004997          	auipc	s3,0x4
    800003b0:	33498993          	addi	s3,s3,820 # 800046e0 <Int_Glob>
    800003b4:	04300b93          	li	s7,67
    800003b8:	00001a17          	auipc	s4,0x1
    800003bc:	e90a0a13          	addi	s4,s4,-368 # 80001248 <_etext+0xd4>
    800003c0:	121b0b13          	addi	s6,s6,289
    800003c4:	02079793          	slli	a5,a5,0x20
    800003c8:	0207d793          	srli	a5,a5,0x20
    800003cc:	00f73023          	sd	a5,0(a4)
    800003d0:	04100793          	li	a5,65
    800003d4:	00f48023          	sb	a5,0(s1)
    800003d8:	00100793          	li	a5,1
    800003dc:	00001597          	auipc	a1,0x1
    800003e0:	e4c58593          	addi	a1,a1,-436 # 80001228 <_etext+0xb4>
    800003e4:	00f92023          	sw	a5,0(s2)
    800003e8:	03010513          	addi	a0,sp,48
    800003ec:	04200793          	li	a5,66
    800003f0:	00fc8023          	sb	a5,0(s9)
    800003f4:	0e9000ef          	jal	ra,80000cdc <strcpy>
    800003f8:	03010593          	addi	a1,sp,48
    800003fc:	01010513          	addi	a0,sp,16
    80000400:	df1ff0ef          	jal	ra,800001f0 <Func_2>
    80000404:	00153793          	seqz	a5,a0
    80000408:	00300613          	li	a2,3
    8000040c:	00002597          	auipc	a1,0x2
    80000410:	bb458593          	addi	a1,a1,-1100 # 80001fc0 <Arr_2_Glob>
    80000414:	00700693          	li	a3,7
    80000418:	00004517          	auipc	a0,0x4
    8000041c:	2e050513          	addi	a0,a0,736 # 800046f8 <Arr_1_Glob>
    80000420:	00f92023          	sw	a5,0(s2)
    80000424:	d61ff0ef          	jal	ra,80000184 <Proc_8>
    80000428:	000ab503          	ld	a0,0(s5)
    8000042c:	04100413          	li	s0,65
    80000430:	00100d13          	li	s10,1
    80000434:	c31ff0ef          	jal	ra,80000064 <Proc_1>
    80000438:	000cc583          	lbu	a1,0(s9)
    8000043c:	04000793          	li	a5,64
    80000440:	00300613          	li	a2,3
    80000444:	58b7f063          	bgeu	a5,a1,800009c4 <main+0x770>
    80000448:	000cc783          	lbu	a5,0(s9)
    8000044c:	0014041b          	addiw	s0,s0,1
    80000450:	0ff47413          	andi	s0,s0,255
    80000454:	0287ec63          	bltu	a5,s0,8000048c <main+0x238>
    80000458:	00000793          	li	a5,0
    8000045c:	55740c63          	beq	s0,s7,800009b4 <main+0x760>
    80000460:	fefd14e3          	bne	s10,a5,80000448 <main+0x1f4>
    80000464:	000a0593          	mv	a1,s4
    80000468:	03010513          	addi	a0,sp,48
    8000046c:	071000ef          	jal	ra,80000cdc <strcpy>
    80000470:	000cc783          	lbu	a5,0(s9)
    80000474:	0014041b          	addiw	s0,s0,1
    80000478:	0189a023          	sw	s8,0(s3)
    8000047c:	0ff47413          	andi	s0,s0,255
    80000480:	00000d13          	li	s10,0
    80000484:	000c0613          	mv	a2,s8
    80000488:	fc87f8e3          	bgeu	a5,s0,80000458 <main+0x204>
    8000048c:	0016179b          	slliw	a5,a2,0x1
    80000490:	00c787bb          	addw	a5,a5,a2
    80000494:	00700613          	li	a2,7
    80000498:	02c7cdbb          	divw	s11,a5,a2
    8000049c:	ff97879b          	addiw	a5,a5,-7
    800004a0:	0037959b          	slliw	a1,a5,0x3
    800004a4:	40f587bb          	subw	a5,a1,a5
    800004a8:	41b7843b          	subw	s0,a5,s11
    800004ac:	0004c783          	lbu	a5,0(s1)
    800004b0:	04100713          	li	a4,65
    800004b4:	00e79863          	bne	a5,a4,800004c4 <main+0x270>
    800004b8:	0009a783          	lw	a5,0(s3)
    800004bc:	009d831b          	addiw	t1,s11,9
    800004c0:	40f30dbb          	subw	s11,t1,a5
    800004c4:	001c0c1b          	addiw	s8,s8,1
    800004c8:	f16c14e3          	bne	s8,s6,800003d0 <main+0x17c>
    800004cc:	00810593          	addi	a1,sp,8
    800004d0:	00600513          	li	a0,6
    800004d4:	60c000ef          	jal	ra,80000ae0 <ioe_read>
    800004d8:	00002797          	auipc	a5,0x2
    800004dc:	ae078793          	addi	a5,a5,-1312 # 80001fb8 <Begin_Time>
    800004e0:	0007b603          	ld	a2,0(a5)
    800004e4:	00813783          	ld	a5,8(sp)
    800004e8:	3e800593          	li	a1,1000
    800004ec:	00100513          	li	a0,1
    800004f0:	02b7d7b3          	divu	a5,a5,a1
    800004f4:	0009a583          	lw	a1,0(s3)
    800004f8:	00002997          	auipc	s3,0x2
    800004fc:	ab898993          	addi	s3,s3,-1352 # 80001fb0 <User_Time>
    80000500:	00004717          	auipc	a4,0x4
    80000504:	1ea72823          	sw	a0,496(a4) # 800046f0 <Done>
    80000508:	00500513          	li	a0,5
    8000050c:	02079793          	slli	a5,a5,0x20
    80000510:	0207d793          	srli	a5,a5,0x20
    80000514:	40c78633          	sub	a2,a5,a2
    80000518:	00004717          	auipc	a4,0x4
    8000051c:	1af73c23          	sd	a5,440(a4) # 800046d0 <End_Time>
    80000520:	00c9b023          	sd	a2,0(s3)
    80000524:	02a58463          	beq	a1,a0,8000054c <main+0x2f8>
    80000528:	00001517          	auipc	a0,0x1
    8000052c:	d4050513          	addi	a0,a0,-704 # 80001268 <_etext+0xf4>
    80000530:	00001797          	auipc	a5,0x1
    80000534:	2407a023          	sw	zero,576(a5) # 80001770 <pass>
    80000538:	191000ef          	jal	ra,80000ec8 <printf>
    8000053c:	00500593          	li	a1,5
    80000540:	00001517          	auipc	a0,0x1
    80000544:	d4850513          	addi	a0,a0,-696 # 80001288 <_etext+0x114>
    80000548:	181000ef          	jal	ra,80000ec8 <printf>
    8000054c:	00092583          	lw	a1,0(s2)
    80000550:	00100793          	li	a5,1
    80000554:	02f58463          	beq	a1,a5,8000057c <main+0x328>
    80000558:	00001517          	auipc	a0,0x1
    8000055c:	d5050513          	addi	a0,a0,-688 # 800012a8 <_etext+0x134>
    80000560:	00001797          	auipc	a5,0x1
    80000564:	2007a823          	sw	zero,528(a5) # 80001770 <pass>
    80000568:	161000ef          	jal	ra,80000ec8 <printf>
    8000056c:	00100593          	li	a1,1
    80000570:	00001517          	auipc	a0,0x1
    80000574:	d1850513          	addi	a0,a0,-744 # 80001288 <_etext+0x114>
    80000578:	151000ef          	jal	ra,80000ec8 <printf>
    8000057c:	0004c583          	lbu	a1,0(s1)
    80000580:	04100793          	li	a5,65
    80000584:	02f58463          	beq	a1,a5,800005ac <main+0x358>
    80000588:	00001517          	auipc	a0,0x1
    8000058c:	d4050513          	addi	a0,a0,-704 # 800012c8 <_etext+0x154>
    80000590:	00001797          	auipc	a5,0x1
    80000594:	1e07a023          	sw	zero,480(a5) # 80001770 <pass>
    80000598:	131000ef          	jal	ra,80000ec8 <printf>
    8000059c:	04100593          	li	a1,65
    800005a0:	00001517          	auipc	a0,0x1
    800005a4:	d4850513          	addi	a0,a0,-696 # 800012e8 <_etext+0x174>
    800005a8:	121000ef          	jal	ra,80000ec8 <printf>
    800005ac:	000cc583          	lbu	a1,0(s9)
    800005b0:	04200793          	li	a5,66
    800005b4:	02f58463          	beq	a1,a5,800005dc <main+0x388>
    800005b8:	00001517          	auipc	a0,0x1
    800005bc:	d5050513          	addi	a0,a0,-688 # 80001308 <_etext+0x194>
    800005c0:	00001797          	auipc	a5,0x1
    800005c4:	1a07a823          	sw	zero,432(a5) # 80001770 <pass>
    800005c8:	101000ef          	jal	ra,80000ec8 <printf>
    800005cc:	04200593          	li	a1,66
    800005d0:	00001517          	auipc	a0,0x1
    800005d4:	d1850513          	addi	a0,a0,-744 # 800012e8 <_etext+0x174>
    800005d8:	0f1000ef          	jal	ra,80000ec8 <printf>
    800005dc:	00004597          	auipc	a1,0x4
    800005e0:	13c5a583          	lw	a1,316(a1) # 80004718 <Arr_1_Glob+0x20>
    800005e4:	00700793          	li	a5,7
    800005e8:	02f58463          	beq	a1,a5,80000610 <main+0x3bc>
    800005ec:	00001517          	auipc	a0,0x1
    800005f0:	d3c50513          	addi	a0,a0,-708 # 80001328 <_etext+0x1b4>
    800005f4:	00001797          	auipc	a5,0x1
    800005f8:	1607ae23          	sw	zero,380(a5) # 80001770 <pass>
    800005fc:	0cd000ef          	jal	ra,80000ec8 <printf>
    80000600:	00700593          	li	a1,7
    80000604:	00001517          	auipc	a0,0x1
    80000608:	c8450513          	addi	a0,a0,-892 # 80001288 <_etext+0x114>
    8000060c:	0bd000ef          	jal	ra,80000ec8 <printf>
    80000610:	00002797          	auipc	a5,0x2
    80000614:	9b078793          	addi	a5,a5,-1616 # 80001fc0 <Arr_2_Glob>
    80000618:	65c7a583          	lw	a1,1628(a5)
    8000061c:	0007a7b7          	lui	a5,0x7a
    80000620:	12a78793          	addi	a5,a5,298 # 7a12a <_entry_offset+0x7a12a>
    80000624:	02f58263          	beq	a1,a5,80000648 <main+0x3f4>
    80000628:	00001517          	auipc	a0,0x1
    8000062c:	d2050513          	addi	a0,a0,-736 # 80001348 <_etext+0x1d4>
    80000630:	00001797          	auipc	a5,0x1
    80000634:	1407a023          	sw	zero,320(a5) # 80001770 <pass>
    80000638:	091000ef          	jal	ra,80000ec8 <printf>
    8000063c:	00001517          	auipc	a0,0x1
    80000640:	d2c50513          	addi	a0,a0,-724 # 80001368 <_etext+0x1f4>
    80000644:	085000ef          	jal	ra,80000ec8 <printf>
    80000648:	000ab783          	ld	a5,0(s5)
    8000064c:	0087a583          	lw	a1,8(a5)
    80000650:	02058463          	beqz	a1,80000678 <main+0x424>
    80000654:	00001517          	auipc	a0,0x1
    80000658:	d4450513          	addi	a0,a0,-700 # 80001398 <_etext+0x224>
    8000065c:	00001797          	auipc	a5,0x1
    80000660:	1007aa23          	sw	zero,276(a5) # 80001770 <pass>
    80000664:	065000ef          	jal	ra,80000ec8 <printf>
    80000668:	00000593          	li	a1,0
    8000066c:	00001517          	auipc	a0,0x1
    80000670:	c1c50513          	addi	a0,a0,-996 # 80001288 <_etext+0x114>
    80000674:	055000ef          	jal	ra,80000ec8 <printf>
    80000678:	000ab703          	ld	a4,0(s5)
    8000067c:	00200793          	li	a5,2
    80000680:	00c72583          	lw	a1,12(a4)
    80000684:	02f58463          	beq	a1,a5,800006ac <main+0x458>
    80000688:	00001517          	auipc	a0,0x1
    8000068c:	d3850513          	addi	a0,a0,-712 # 800013c0 <_etext+0x24c>
    80000690:	00001797          	auipc	a5,0x1
    80000694:	0e07a023          	sw	zero,224(a5) # 80001770 <pass>
    80000698:	031000ef          	jal	ra,80000ec8 <printf>
    8000069c:	00200593          	li	a1,2
    800006a0:	00001517          	auipc	a0,0x1
    800006a4:	be850513          	addi	a0,a0,-1048 # 80001288 <_etext+0x114>
    800006a8:	021000ef          	jal	ra,80000ec8 <printf>
    800006ac:	000ab703          	ld	a4,0(s5)
    800006b0:	01100793          	li	a5,17
    800006b4:	01072583          	lw	a1,16(a4)
    800006b8:	02f58463          	beq	a1,a5,800006e0 <main+0x48c>
    800006bc:	00001517          	auipc	a0,0x1
    800006c0:	d2c50513          	addi	a0,a0,-724 # 800013e8 <_etext+0x274>
    800006c4:	00001797          	auipc	a5,0x1
    800006c8:	0a07a623          	sw	zero,172(a5) # 80001770 <pass>
    800006cc:	7fc000ef          	jal	ra,80000ec8 <printf>
    800006d0:	01100593          	li	a1,17
    800006d4:	00001517          	auipc	a0,0x1
    800006d8:	bb450513          	addi	a0,a0,-1100 # 80001288 <_etext+0x114>
    800006dc:	7ec000ef          	jal	ra,80000ec8 <printf>
    800006e0:	000ab503          	ld	a0,0(s5)
    800006e4:	00001597          	auipc	a1,0x1
    800006e8:	aa458593          	addi	a1,a1,-1372 # 80001188 <_etext+0x14>
    800006ec:	01450513          	addi	a0,a0,20
    800006f0:	60c000ef          	jal	ra,80000cfc <strcmp>
    800006f4:	02050663          	beqz	a0,80000720 <main+0x4cc>
    800006f8:	000ab583          	ld	a1,0(s5)
    800006fc:	00001517          	auipc	a0,0x1
    80000700:	d1450513          	addi	a0,a0,-748 # 80001410 <_etext+0x29c>
    80000704:	00001797          	auipc	a5,0x1
    80000708:	0607a623          	sw	zero,108(a5) # 80001770 <pass>
    8000070c:	01458593          	addi	a1,a1,20
    80000710:	7b8000ef          	jal	ra,80000ec8 <printf>
    80000714:	00001517          	auipc	a0,0x1
    80000718:	d2450513          	addi	a0,a0,-732 # 80001438 <_etext+0x2c4>
    8000071c:	7ac000ef          	jal	ra,80000ec8 <printf>
    80000720:	00004797          	auipc	a5,0x4
    80000724:	fb878793          	addi	a5,a5,-72 # 800046d8 <Next_Ptr_Glob>
    80000728:	0007b783          	ld	a5,0(a5)
    8000072c:	0087a583          	lw	a1,8(a5)
    80000730:	02058463          	beqz	a1,80000758 <main+0x504>
    80000734:	00001517          	auipc	a0,0x1
    80000738:	d3c50513          	addi	a0,a0,-708 # 80001470 <_etext+0x2fc>
    8000073c:	00001797          	auipc	a5,0x1
    80000740:	0207aa23          	sw	zero,52(a5) # 80001770 <pass>
    80000744:	784000ef          	jal	ra,80000ec8 <printf>
    80000748:	00000593          	li	a1,0
    8000074c:	00001517          	auipc	a0,0x1
    80000750:	b3c50513          	addi	a0,a0,-1220 # 80001288 <_etext+0x114>
    80000754:	774000ef          	jal	ra,80000ec8 <printf>
    80000758:	00004797          	auipc	a5,0x4
    8000075c:	f8078793          	addi	a5,a5,-128 # 800046d8 <Next_Ptr_Glob>
    80000760:	0007b703          	ld	a4,0(a5)
    80000764:	00100793          	li	a5,1
    80000768:	00c72583          	lw	a1,12(a4)
    8000076c:	02f58463          	beq	a1,a5,80000794 <main+0x540>
    80000770:	00001517          	auipc	a0,0x1
    80000774:	d2850513          	addi	a0,a0,-728 # 80001498 <_etext+0x324>
    80000778:	00001797          	auipc	a5,0x1
    8000077c:	fe07ac23          	sw	zero,-8(a5) # 80001770 <pass>
    80000780:	748000ef          	jal	ra,80000ec8 <printf>
    80000784:	00100593          	li	a1,1
    80000788:	00001517          	auipc	a0,0x1
    8000078c:	b0050513          	addi	a0,a0,-1280 # 80001288 <_etext+0x114>
    80000790:	738000ef          	jal	ra,80000ec8 <printf>
    80000794:	00004797          	auipc	a5,0x4
    80000798:	f4478793          	addi	a5,a5,-188 # 800046d8 <Next_Ptr_Glob>
    8000079c:	0007b703          	ld	a4,0(a5)
    800007a0:	01200793          	li	a5,18
    800007a4:	01072583          	lw	a1,16(a4)
    800007a8:	02f58463          	beq	a1,a5,800007d0 <main+0x57c>
    800007ac:	00001517          	auipc	a0,0x1
    800007b0:	d1450513          	addi	a0,a0,-748 # 800014c0 <_etext+0x34c>
    800007b4:	00001797          	auipc	a5,0x1
    800007b8:	fa07ae23          	sw	zero,-68(a5) # 80001770 <pass>
    800007bc:	70c000ef          	jal	ra,80000ec8 <printf>
    800007c0:	01200593          	li	a1,18
    800007c4:	00001517          	auipc	a0,0x1
    800007c8:	ac450513          	addi	a0,a0,-1340 # 80001288 <_etext+0x114>
    800007cc:	6fc000ef          	jal	ra,80000ec8 <printf>
    800007d0:	00004497          	auipc	s1,0x4
    800007d4:	f0848493          	addi	s1,s1,-248 # 800046d8 <Next_Ptr_Glob>
    800007d8:	0004b503          	ld	a0,0(s1)
    800007dc:	00001597          	auipc	a1,0x1
    800007e0:	9ac58593          	addi	a1,a1,-1620 # 80001188 <_etext+0x14>
    800007e4:	01450513          	addi	a0,a0,20
    800007e8:	514000ef          	jal	ra,80000cfc <strcmp>
    800007ec:	02050663          	beqz	a0,80000818 <main+0x5c4>
    800007f0:	0004b583          	ld	a1,0(s1)
    800007f4:	00001517          	auipc	a0,0x1
    800007f8:	cf450513          	addi	a0,a0,-780 # 800014e8 <_etext+0x374>
    800007fc:	00001797          	auipc	a5,0x1
    80000800:	f607aa23          	sw	zero,-140(a5) # 80001770 <pass>
    80000804:	01458593          	addi	a1,a1,20
    80000808:	6c0000ef          	jal	ra,80000ec8 <printf>
    8000080c:	00001517          	auipc	a0,0x1
    80000810:	c2c50513          	addi	a0,a0,-980 # 80001438 <_etext+0x2c4>
    80000814:	6b4000ef          	jal	ra,80000ec8 <printf>
    80000818:	00500793          	li	a5,5
    8000081c:	02fd8663          	beq	s11,a5,80000848 <main+0x5f4>
    80000820:	000d8593          	mv	a1,s11
    80000824:	00001517          	auipc	a0,0x1
    80000828:	cec50513          	addi	a0,a0,-788 # 80001510 <_etext+0x39c>
    8000082c:	00001797          	auipc	a5,0x1
    80000830:	f407a223          	sw	zero,-188(a5) # 80001770 <pass>
    80000834:	694000ef          	jal	ra,80000ec8 <printf>
    80000838:	00500593          	li	a1,5
    8000083c:	00001517          	auipc	a0,0x1
    80000840:	a4c50513          	addi	a0,a0,-1460 # 80001288 <_etext+0x114>
    80000844:	684000ef          	jal	ra,80000ec8 <printf>
    80000848:	00d00793          	li	a5,13
    8000084c:	02f40663          	beq	s0,a5,80000878 <main+0x624>
    80000850:	00040593          	mv	a1,s0
    80000854:	00001517          	auipc	a0,0x1
    80000858:	cdc50513          	addi	a0,a0,-804 # 80001530 <_etext+0x3bc>
    8000085c:	00001797          	auipc	a5,0x1
    80000860:	f007aa23          	sw	zero,-236(a5) # 80001770 <pass>
    80000864:	664000ef          	jal	ra,80000ec8 <printf>
    80000868:	00d00593          	li	a1,13
    8000086c:	00001517          	auipc	a0,0x1
    80000870:	a1c50513          	addi	a0,a0,-1508 # 80001288 <_etext+0x114>
    80000874:	654000ef          	jal	ra,80000ec8 <printf>
    80000878:	020d1663          	bnez	s10,800008a4 <main+0x650>
    8000087c:	000d0593          	mv	a1,s10
    80000880:	00001517          	auipc	a0,0x1
    80000884:	cd050513          	addi	a0,a0,-816 # 80001550 <_etext+0x3dc>
    80000888:	00001797          	auipc	a5,0x1
    8000088c:	ee07a423          	sw	zero,-280(a5) # 80001770 <pass>
    80000890:	638000ef          	jal	ra,80000ec8 <printf>
    80000894:	00100593          	li	a1,1
    80000898:	00001517          	auipc	a0,0x1
    8000089c:	9f050513          	addi	a0,a0,-1552 # 80001288 <_etext+0x114>
    800008a0:	628000ef          	jal	ra,80000ec8 <printf>
    800008a4:	00001597          	auipc	a1,0x1
    800008a8:	90458593          	addi	a1,a1,-1788 # 800011a8 <_etext+0x34>
    800008ac:	01010513          	addi	a0,sp,16
    800008b0:	44c000ef          	jal	ra,80000cfc <strcmp>
    800008b4:	02050463          	beqz	a0,800008dc <main+0x688>
    800008b8:	01010593          	addi	a1,sp,16
    800008bc:	00001517          	auipc	a0,0x1
    800008c0:	cb450513          	addi	a0,a0,-844 # 80001570 <_etext+0x3fc>
    800008c4:	00001797          	auipc	a5,0x1
    800008c8:	ea07a623          	sw	zero,-340(a5) # 80001770 <pass>
    800008cc:	5fc000ef          	jal	ra,80000ec8 <printf>
    800008d0:	00001517          	auipc	a0,0x1
    800008d4:	cc050513          	addi	a0,a0,-832 # 80001590 <_etext+0x41c>
    800008d8:	5f0000ef          	jal	ra,80000ec8 <printf>
    800008dc:	00001597          	auipc	a1,0x1
    800008e0:	94c58593          	addi	a1,a1,-1716 # 80001228 <_etext+0xb4>
    800008e4:	03010513          	addi	a0,sp,48
    800008e8:	414000ef          	jal	ra,80000cfc <strcmp>
    800008ec:	02050463          	beqz	a0,80000914 <main+0x6c0>
    800008f0:	03010593          	addi	a1,sp,48
    800008f4:	00001517          	auipc	a0,0x1
    800008f8:	cd450513          	addi	a0,a0,-812 # 800015c8 <_etext+0x454>
    800008fc:	00001797          	auipc	a5,0x1
    80000900:	e607aa23          	sw	zero,-396(a5) # 80001770 <pass>
    80000904:	5c4000ef          	jal	ra,80000ec8 <printf>
    80000908:	00001517          	auipc	a0,0x1
    8000090c:	ce050513          	addi	a0,a0,-800 # 800015e8 <_etext+0x474>
    80000910:	5b8000ef          	jal	ra,80000ec8 <printf>
    80000914:	0009a583          	lw	a1,0(s3)
    80000918:	00001517          	auipc	a0,0x1
    8000091c:	d0850513          	addi	a0,a0,-760 # 80001620 <_etext+0x4ac>
    80000920:	5a8000ef          	jal	ra,80000ec8 <printf>
    80000924:	00001517          	auipc	a0,0x1
    80000928:	d1450513          	addi	a0,a0,-748 # 80001638 <_etext+0x4c4>
    8000092c:	59c000ef          	jal	ra,80000ec8 <printf>
    80000930:	00001797          	auipc	a5,0x1
    80000934:	e407a783          	lw	a5,-448(a5) # 80001770 <pass>
    80000938:	00001597          	auipc	a1,0x1
    8000093c:	84058593          	addi	a1,a1,-1984 # 80001178 <_etext+0x4>
    80000940:	00079663          	bnez	a5,8000094c <main+0x6f8>
    80000944:	00001597          	auipc	a1,0x1
    80000948:	83c58593          	addi	a1,a1,-1988 # 80001180 <_etext+0xc>
    8000094c:	0009b603          	ld	a2,0(s3)
    80000950:	000d77b7          	lui	a5,0xd7
    80000954:	1047879b          	addiw	a5,a5,260
    80000958:	02c7c63b          	divw	a2,a5,a2
    8000095c:	00001517          	auipc	a0,0x1
    80000960:	d1450513          	addi	a0,a0,-748 # 80001670 <_etext+0x4fc>
    80000964:	564000ef          	jal	ra,80000ec8 <printf>
    80000968:	00001517          	auipc	a0,0x1
    8000096c:	d2850513          	addi	a0,a0,-728 # 80001690 <_etext+0x51c>
    80000970:	558000ef          	jal	ra,80000ec8 <printf>
    80000974:	0b813083          	ld	ra,184(sp)
    80000978:	0b013403          	ld	s0,176(sp)
    8000097c:	0a813483          	ld	s1,168(sp)
    80000980:	0a013903          	ld	s2,160(sp)
    80000984:	09813983          	ld	s3,152(sp)
    80000988:	09013a03          	ld	s4,144(sp)
    8000098c:	08813a83          	ld	s5,136(sp)
    80000990:	08013b03          	ld	s6,128(sp)
    80000994:	07813b83          	ld	s7,120(sp)
    80000998:	07013c03          	ld	s8,112(sp)
    8000099c:	06813c83          	ld	s9,104(sp)
    800009a0:	06013d03          	ld	s10,96(sp)
    800009a4:	05813d83          	ld	s11,88(sp)
    800009a8:	00000513          	li	a0,0
    800009ac:	0c010113          	addi	sp,sp,192
    800009b0:	00008067          	ret
    800009b4:	00848023          	sb	s0,0(s1)
    800009b8:	00100793          	li	a5,1
    800009bc:	a8fd16e3          	bne	s10,a5,80000448 <main+0x1f4>
    800009c0:	aa5ff06f          	j	80000464 <main+0x210>
    800009c4:	00d00413          	li	s0,13
    800009c8:	00100d93          	li	s11,1
    800009cc:	ae1ff06f          	j	800004ac <main+0x258>

00000000800009d0 <putch>:
    800009d0:	00500793          	li	a5,5
    800009d4:	01d79793          	slli	a5,a5,0x1d
    800009d8:	3ea78c23          	sb	a0,1016(a5) # d73f8 <_entry_offset+0xd73f8>
    800009dc:	00008067          	ret

00000000800009e0 <halt>:
    800009e0:	00100073          	ebreak
    800009e4:	0000006f          	j	800009e4 <halt+0x4>

00000000800009e8 <_trm_init>:
    800009e8:	ff010113          	addi	sp,sp,-16
    800009ec:	00001517          	auipc	a0,0x1
    800009f0:	d7450513          	addi	a0,a0,-652 # 80001760 <mainargs>
    800009f4:	00113423          	sd	ra,8(sp)
    800009f8:	85dff0ef          	jal	ra,80000254 <main>
    800009fc:	00100073          	ebreak
    80000a00:	0000006f          	j	80000a00 <_trm_init+0x18>

0000000080000a04 <__am_timer_config>:
    80000a04:	00100793          	li	a5,1
    80000a08:	00f50023          	sb	a5,0(a0)
    80000a0c:	00f500a3          	sb	a5,1(a0)
    80000a10:	00008067          	ret

0000000080000a14 <__am_input_config>:
    80000a14:	00100793          	li	a5,1
    80000a18:	00f50023          	sb	a5,0(a0)
    80000a1c:	00008067          	ret

0000000080000a20 <fail>:
    80000a20:	ff010113          	addi	sp,sp,-16
    80000a24:	00813023          	sd	s0,0(sp)
    80000a28:	00113423          	sd	ra,8(sp)
    80000a2c:	00001417          	auipc	s0,0x1
    80000a30:	ca440413          	addi	s0,s0,-860 # 800016d0 <_etext+0x55c>
    80000a34:	04100513          	li	a0,65
    80000a38:	00140413          	addi	s0,s0,1
    80000a3c:	f95ff0ef          	jal	ra,800009d0 <putch>
    80000a40:	00044503          	lbu	a0,0(s0)
    80000a44:	fe051ae3          	bnez	a0,80000a38 <fail+0x18>
    80000a48:	00001417          	auipc	s0,0x1
    80000a4c:	c9840413          	addi	s0,s0,-872 # 800016e0 <_etext+0x56c>
    80000a50:	06100513          	li	a0,97
    80000a54:	00140413          	addi	s0,s0,1
    80000a58:	f79ff0ef          	jal	ra,800009d0 <putch>
    80000a5c:	00044503          	lbu	a0,0(s0)
    80000a60:	fe051ae3          	bnez	a0,80000a54 <fail+0x34>
    80000a64:	00001417          	auipc	s0,0x1
    80000a68:	c9c40413          	addi	s0,s0,-868 # 80001700 <_etext+0x58c>
    80000a6c:	02000513          	li	a0,32
    80000a70:	00140413          	addi	s0,s0,1
    80000a74:	f5dff0ef          	jal	ra,800009d0 <putch>
    80000a78:	00044503          	lbu	a0,0(s0)
    80000a7c:	fe051ae3          	bnez	a0,80000a70 <fail+0x50>
    80000a80:	00100513          	li	a0,1
    80000a84:	f5dff0ef          	jal	ra,800009e0 <halt>

0000000080000a88 <ioe_init>:
    80000a88:	ff010113          	addi	sp,sp,-16
    80000a8c:	00113423          	sd	ra,8(sp)
    80000a90:	00001797          	auipc	a5,0x1
    80000a94:	cf878793          	addi	a5,a5,-776 # 80001788 <lut>
    80000a98:	00001697          	auipc	a3,0x1
    80000a9c:	0f068693          	addi	a3,a3,240 # 80001b88 <memory>
    80000aa0:	00000617          	auipc	a2,0x0
    80000aa4:	f8060613          	addi	a2,a2,-128 # 80000a20 <fail>
    80000aa8:	00c0006f          	j	80000ab4 <ioe_init+0x2c>
    80000aac:	00878793          	addi	a5,a5,8
    80000ab0:	00d78c63          	beq	a5,a3,80000ac8 <ioe_init+0x40>
    80000ab4:	0007b703          	ld	a4,0(a5)
    80000ab8:	fe071ae3          	bnez	a4,80000aac <ioe_init+0x24>
    80000abc:	00c7b023          	sd	a2,0(a5)
    80000ac0:	00878793          	addi	a5,a5,8
    80000ac4:	fed798e3          	bne	a5,a3,80000ab4 <ioe_init+0x2c>
    80000ac8:	034000ef          	jal	ra,80000afc <__am_timer_init>
    80000acc:	0bc000ef          	jal	ra,80000b88 <__am_gpu_init>
    80000ad0:	00813083          	ld	ra,8(sp)
    80000ad4:	00100513          	li	a0,1
    80000ad8:	01010113          	addi	sp,sp,16
    80000adc:	00008067          	ret

0000000080000ae0 <ioe_read>:
    80000ae0:	00351793          	slli	a5,a0,0x3
    80000ae4:	00001517          	auipc	a0,0x1
    80000ae8:	ca450513          	addi	a0,a0,-860 # 80001788 <lut>
    80000aec:	00f50533          	add	a0,a0,a5
    80000af0:	00053303          	ld	t1,0(a0)
    80000af4:	00058513          	mv	a0,a1
    80000af8:	00030067          	jr	t1

0000000080000afc <__am_timer_init>:
    80000afc:	00500713          	li	a4,5
    80000b00:	01d71713          	slli	a4,a4,0x1d
    80000b04:	04872683          	lw	a3,72(a4)
    80000b08:	04c72783          	lw	a5,76(a4)
    80000b0c:	02069713          	slli	a4,a3,0x20
    80000b10:	02075713          	srli	a4,a4,0x20
    80000b14:	02079793          	slli	a5,a5,0x20
    80000b18:	00e7e7b3          	or	a5,a5,a4
    80000b1c:	00001717          	auipc	a4,0x1
    80000b20:	46f73e23          	sd	a5,1148(a4) # 80001f98 <boot_time>
    80000b24:	00008067          	ret

0000000080000b28 <__am_timer_uptime>:
    80000b28:	00500713          	li	a4,5
    80000b2c:	01d71713          	slli	a4,a4,0x1d
    80000b30:	04872683          	lw	a3,72(a4)
    80000b34:	04c72783          	lw	a5,76(a4)
    80000b38:	02069713          	slli	a4,a3,0x20
    80000b3c:	02075713          	srli	a4,a4,0x20
    80000b40:	02079793          	slli	a5,a5,0x20
    80000b44:	00e7e7b3          	or	a5,a5,a4
    80000b48:	00001717          	auipc	a4,0x1
    80000b4c:	45073703          	ld	a4,1104(a4) # 80001f98 <boot_time>
    80000b50:	40e787b3          	sub	a5,a5,a4
    80000b54:	00f53023          	sd	a5,0(a0)
    80000b58:	00008067          	ret

0000000080000b5c <__am_timer_rtc>:
    80000b5c:	76c00793          	li	a5,1900
    80000b60:	00052a23          	sw	zero,20(a0)
    80000b64:	00052823          	sw	zero,16(a0)
    80000b68:	00052623          	sw	zero,12(a0)
    80000b6c:	00052423          	sw	zero,8(a0)
    80000b70:	00052223          	sw	zero,4(a0)
    80000b74:	00f52023          	sw	a5,0(a0)
    80000b78:	00008067          	ret

0000000080000b7c <__am_input_keybrd>:
    80000b7c:	00050023          	sb	zero,0(a0)
    80000b80:	00052223          	sw	zero,4(a0)
    80000b84:	00008067          	ret

0000000080000b88 <__am_gpu_init>:
    80000b88:	00500793          	li	a5,5
    80000b8c:	01d79793          	slli	a5,a5,0x1d
    80000b90:	1007a783          	lw	a5,256(a5)
    80000b94:	0107d79b          	srliw	a5,a5,0x10
    80000b98:	00001717          	auipc	a4,0x1
    80000b9c:	40f72423          	sw	a5,1032(a4) # 80001fa0 <w>
    80000ba0:	00008067          	ret

0000000080000ba4 <__am_gpu_config>:
    80000ba4:	00500793          	li	a5,5
    80000ba8:	00052223          	sw	zero,4(a0)
    80000bac:	00052423          	sw	zero,8(a0)
    80000bb0:	00052623          	sw	zero,12(a0)
    80000bb4:	01d79793          	slli	a5,a5,0x1d
    80000bb8:	1007a783          	lw	a5,256(a5)
    80000bbc:	00100713          	li	a4,1
    80000bc0:	00e51023          	sh	a4,0(a0)
    80000bc4:	0107d71b          	srliw	a4,a5,0x10
    80000bc8:	03079793          	slli	a5,a5,0x30
    80000bcc:	0307d793          	srli	a5,a5,0x30
    80000bd0:	00e52223          	sw	a4,4(a0)
    80000bd4:	00f52423          	sw	a5,8(a0)
    80000bd8:	00008067          	ret

0000000080000bdc <__am_gpu_fbdraw>:
    80000bdc:	fc010113          	addi	sp,sp,-64
    80000be0:	02813823          	sd	s0,48(sp)
    80000be4:	00452403          	lw	s0,4(a0)
    80000be8:	01413823          	sd	s4,16(sp)
    80000bec:	00001a17          	auipc	s4,0x1
    80000bf0:	3b4a2a03          	lw	s4,948(s4) # 80001fa0 <w>
    80000bf4:	0344043b          	mulw	s0,s0,s4
    80000bf8:	00052783          	lw	a5,0(a0)
    80000bfc:	01613023          	sd	s6,0(sp)
    80000c00:	01452b03          	lw	s6,20(a0)
    80000c04:	02913423          	sd	s1,40(sp)
    80000c08:	01313c23          	sd	s3,24(sp)
    80000c0c:	01513423          	sd	s5,8(sp)
    80000c10:	02113c23          	sd	ra,56(sp)
    80000c14:	03213023          	sd	s2,32(sp)
    80000c18:	01052983          	lw	s3,16(a0)
    80000c1c:	00f4043b          	addw	s0,s0,a5
    80000c20:	0a100793          	li	a5,161
    80000c24:	0024141b          	slliw	s0,s0,0x2
    80000c28:	01879793          	slli	a5,a5,0x18
    80000c2c:	00853483          	ld	s1,8(a0)
    80000c30:	00050a93          	mv	s5,a0
    80000c34:	00f40433          	add	s0,s0,a5
    80000c38:	03605863          	blez	s6,80000c68 <__am_gpu_fbdraw+0x8c>
    80000c3c:	0029999b          	slliw	s3,s3,0x2
    80000c40:	002a1a1b          	slliw	s4,s4,0x2
    80000c44:	00000913          	li	s2,0
    80000c48:	00048593          	mv	a1,s1
    80000c4c:	00040513          	mv	a0,s0
    80000c50:	00098613          	mv	a2,s3
    80000c54:	0019091b          	addiw	s2,s2,1
    80000c58:	180000ef          	jal	ra,80000dd8 <memcpy>
    80000c5c:	01440433          	add	s0,s0,s4
    80000c60:	013484b3          	add	s1,s1,s3
    80000c64:	ff2b12e3          	bne	s6,s2,80000c48 <__am_gpu_fbdraw+0x6c>
    80000c68:	018ac783          	lbu	a5,24(s5)
    80000c6c:	00078a63          	beqz	a5,80000c80 <__am_gpu_fbdraw+0xa4>
    80000c70:	00500793          	li	a5,5
    80000c74:	01d79793          	slli	a5,a5,0x1d
    80000c78:	00100713          	li	a4,1
    80000c7c:	10e7a223          	sw	a4,260(a5)
    80000c80:	03813083          	ld	ra,56(sp)
    80000c84:	03013403          	ld	s0,48(sp)
    80000c88:	02813483          	ld	s1,40(sp)
    80000c8c:	02013903          	ld	s2,32(sp)
    80000c90:	01813983          	ld	s3,24(sp)
    80000c94:	01013a03          	ld	s4,16(sp)
    80000c98:	00813a83          	ld	s5,8(sp)
    80000c9c:	00013b03          	ld	s6,0(sp)
    80000ca0:	04010113          	addi	sp,sp,64
    80000ca4:	00008067          	ret

0000000080000ca8 <__am_gpu_status>:
    80000ca8:	00100793          	li	a5,1
    80000cac:	00f50023          	sb	a5,0(a0)
    80000cb0:	00008067          	ret

0000000080000cb4 <strlen>:
    80000cb4:	00054783          	lbu	a5,0(a0)
    80000cb8:	00050713          	mv	a4,a0
    80000cbc:	00000513          	li	a0,0
    80000cc0:	00078c63          	beqz	a5,80000cd8 <strlen+0x24>
    80000cc4:	00150513          	addi	a0,a0,1
    80000cc8:	00a707b3          	add	a5,a4,a0
    80000ccc:	0007c783          	lbu	a5,0(a5)
    80000cd0:	fe079ae3          	bnez	a5,80000cc4 <strlen+0x10>
    80000cd4:	00008067          	ret
    80000cd8:	00008067          	ret

0000000080000cdc <strcpy>:
    80000cdc:	00050793          	mv	a5,a0
    80000ce0:	0005c683          	lbu	a3,0(a1)
    80000ce4:	00178793          	addi	a5,a5,1
    80000ce8:	00158593          	addi	a1,a1,1
    80000cec:	fed78fa3          	sb	a3,-1(a5)
    80000cf0:	fff5c703          	lbu	a4,-1(a1)
    80000cf4:	fe0716e3          	bnez	a4,80000ce0 <strcpy+0x4>
    80000cf8:	00008067          	ret

0000000080000cfc <strcmp>:
    80000cfc:	00054683          	lbu	a3,0(a0)
    80000d00:	0005c703          	lbu	a4,0(a1)
    80000d04:	00150793          	addi	a5,a0,1
    80000d08:	00158593          	addi	a1,a1,1
    80000d0c:	02068063          	beqz	a3,80000d2c <strcmp+0x30>
    80000d10:	02070463          	beqz	a4,80000d38 <strcmp+0x3c>
    80000d14:	02e69863          	bne	a3,a4,80000d44 <strcmp+0x48>
    80000d18:	0007c683          	lbu	a3,0(a5)
    80000d1c:	0005c703          	lbu	a4,0(a1)
    80000d20:	00178793          	addi	a5,a5,1
    80000d24:	00158593          	addi	a1,a1,1
    80000d28:	fe0694e3          	bnez	a3,80000d10 <strcmp+0x14>
    80000d2c:	00000513          	li	a0,0
    80000d30:	40e5053b          	subw	a0,a0,a4
    80000d34:	00008067          	ret
    80000d38:	0006851b          	sext.w	a0,a3
    80000d3c:	40e5053b          	subw	a0,a0,a4
    80000d40:	00008067          	ret
    80000d44:	40e6853b          	subw	a0,a3,a4
    80000d48:	00008067          	ret

0000000080000d4c <memmove>:
    80000d4c:	fe010113          	addi	sp,sp,-32
    80000d50:	00913423          	sd	s1,8(sp)
    80000d54:	01213023          	sd	s2,0(sp)
    80000d58:	00060493          	mv	s1,a2
    80000d5c:	00050913          	mv	s2,a0
    80000d60:	00060513          	mv	a0,a2
    80000d64:	00813823          	sd	s0,16(sp)
    80000d68:	00113c23          	sd	ra,24(sp)
    80000d6c:	00058413          	mv	s0,a1
    80000d70:	328000ef          	jal	ra,80001098 <malloc>
    80000d74:	04048263          	beqz	s1,80000db8 <memmove+0x6c>
    80000d78:	00040593          	mv	a1,s0
    80000d7c:	00050793          	mv	a5,a0
    80000d80:	00940633          	add	a2,s0,s1
    80000d84:	00050713          	mv	a4,a0
    80000d88:	0005c683          	lbu	a3,0(a1)
    80000d8c:	00158593          	addi	a1,a1,1
    80000d90:	00170713          	addi	a4,a4,1
    80000d94:	fed70fa3          	sb	a3,-1(a4)
    80000d98:	fec598e3          	bne	a1,a2,80000d88 <memmove+0x3c>
    80000d9c:	00090713          	mv	a4,s2
    80000da0:	00950633          	add	a2,a0,s1
    80000da4:	0007c683          	lbu	a3,0(a5)
    80000da8:	00178793          	addi	a5,a5,1
    80000dac:	00170713          	addi	a4,a4,1
    80000db0:	fed70fa3          	sb	a3,-1(a4)
    80000db4:	fec798e3          	bne	a5,a2,80000da4 <memmove+0x58>
    80000db8:	3a0000ef          	jal	ra,80001158 <free>
    80000dbc:	01813083          	ld	ra,24(sp)
    80000dc0:	01013403          	ld	s0,16(sp)
    80000dc4:	00813483          	ld	s1,8(sp)
    80000dc8:	00090513          	mv	a0,s2
    80000dcc:	00013903          	ld	s2,0(sp)
    80000dd0:	02010113          	addi	sp,sp,32
    80000dd4:	00008067          	ret

0000000080000dd8 <memcpy>:
    80000dd8:	f75ff06f          	j	80000d4c <memmove>

0000000080000ddc <int2str>:
    80000ddc:	00050613          	mv	a2,a0
    80000de0:	00051e63          	bnez	a0,80000dfc <int2str+0x20>
    80000de4:	03000793          	li	a5,48
    80000de8:	00158893          	addi	a7,a1,1
    80000dec:	00f58023          	sb	a5,0(a1)
    80000df0:	00100513          	li	a0,1
    80000df4:	00088023          	sb	zero,0(a7)
    80000df8:	00008067          	ret
    80000dfc:	0a055e63          	bgez	a0,80000eb8 <int2str+0xdc>
    80000e00:	02d00793          	li	a5,45
    80000e04:	00f58023          	sb	a5,0(a1)
    80000e08:	00100f13          	li	t5,1
    80000e0c:	00000693          	li	a3,0
    80000e10:	00100e93          	li	t4,1
    80000e14:	01e58733          	add	a4,a1,t5
    80000e18:	00070813          	mv	a6,a4
    80000e1c:	000f0513          	mv	a0,t5
    80000e20:	00a00893          	li	a7,10
    80000e24:	03000e13          	li	t3,48
    80000e28:	031667bb          	remw	a5,a2,a7
    80000e2c:	0ff7f793          	andi	a5,a5,255
    80000e30:	40fe033b          	subw	t1,t3,a5
    80000e34:	0307879b          	addiw	a5,a5,48
    80000e38:	0ff7f793          	andi	a5,a5,255
    80000e3c:	000e8463          	beqz	t4,80000e44 <int2str+0x68>
    80000e40:	0ff37793          	andi	a5,t1,255
    80000e44:	0316463b          	divw	a2,a2,a7
    80000e48:	00f80023          	sb	a5,0(a6)
    80000e4c:	0015051b          	addiw	a0,a0,1
    80000e50:	00180813          	addi	a6,a6,1
    80000e54:	fc061ae3          	bnez	a2,80000e28 <int2str+0x4c>
    80000e58:	00af07bb          	addw	a5,t5,a0
    80000e5c:	4017d61b          	sraiw	a2,a5,0x1
    80000e60:	00a588b3          	add	a7,a1,a0
    80000e64:	f8cf58e3          	bge	t5,a2,80000df4 <int2str+0x18>
    80000e68:	fff6081b          	addiw	a6,a2,-1
    80000e6c:	01e687b3          	add	a5,a3,t5
    80000e70:	41e806bb          	subw	a3,a6,t5
    80000e74:	00158613          	addi	a2,a1,1
    80000e78:	02069693          	slli	a3,a3,0x20
    80000e7c:	40f507b3          	sub	a5,a0,a5
    80000e80:	01e60633          	add	a2,a2,t5
    80000e84:	0206d693          	srli	a3,a3,0x20
    80000e88:	00f585b3          	add	a1,a1,a5
    80000e8c:	00d60633          	add	a2,a2,a3
    80000e90:	00070793          	mv	a5,a4
    80000e94:	0007c683          	lbu	a3,0(a5)
    80000e98:	0005c703          	lbu	a4,0(a1)
    80000e9c:	00178793          	addi	a5,a5,1
    80000ea0:	00d58023          	sb	a3,0(a1)
    80000ea4:	fee78fa3          	sb	a4,-1(a5)
    80000ea8:	fff58593          	addi	a1,a1,-1
    80000eac:	fec794e3          	bne	a5,a2,80000e94 <int2str+0xb8>
    80000eb0:	00088023          	sb	zero,0(a7)
    80000eb4:	00008067          	ret
    80000eb8:	00000f13          	li	t5,0
    80000ebc:	00100693          	li	a3,1
    80000ec0:	00000e93          	li	t4,0
    80000ec4:	f51ff06f          	j	80000e14 <int2str+0x38>

0000000080000ec8 <printf>:
    80000ec8:	d6010113          	addi	sp,sp,-672
    80000ecc:	28f13423          	sd	a5,648(sp)
    80000ed0:	26810793          	addi	a5,sp,616
    80000ed4:	23413823          	sd	s4,560(sp)
    80000ed8:	24113c23          	sd	ra,600(sp)
    80000edc:	24813823          	sd	s0,592(sp)
    80000ee0:	24913423          	sd	s1,584(sp)
    80000ee4:	25213023          	sd	s2,576(sp)
    80000ee8:	23313c23          	sd	s3,568(sp)
    80000eec:	23513423          	sd	s5,552(sp)
    80000ef0:	23613023          	sd	s6,544(sp)
    80000ef4:	21713c23          	sd	s7,536(sp)
    80000ef8:	21813823          	sd	s8,528(sp)
    80000efc:	21913423          	sd	s9,520(sp)
    80000f00:	21a13023          	sd	s10,512(sp)
    80000f04:	00050a13          	mv	s4,a0
    80000f08:	26b13423          	sd	a1,616(sp)
    80000f0c:	26c13823          	sd	a2,624(sp)
    80000f10:	26d13c23          	sd	a3,632(sp)
    80000f14:	28e13023          	sd	a4,640(sp)
    80000f18:	29013823          	sd	a6,656(sp)
    80000f1c:	29113c23          	sd	a7,664(sp)
    80000f20:	00f13023          	sd	a5,0(sp)
    80000f24:	d91ff0ef          	jal	ra,80000cb4 <strlen>
    80000f28:	16050463          	beqz	a0,80001090 <printf+0x1c8>
    80000f2c:	00050a93          	mv	s5,a0
    80000f30:	00000993          	li	s3,0
    80000f34:	00000493          	li	s1,0
    80000f38:	00000413          	li	s0,0
    80000f3c:	02500b13          	li	s6,37
    80000f40:	06400b93          	li	s7,100
    80000f44:	07300c13          	li	s8,115
    80000f48:	00100c93          	li	s9,1
    80000f4c:	008a0433          	add	s0,s4,s0
    80000f50:	00044503          	lbu	a0,0(s0)
    80000f54:	0014891b          	addiw	s2,s1,1
    80000f58:	05650a63          	beq	a0,s6,80000fac <printf+0xe4>
    80000f5c:	00090493          	mv	s1,s2
    80000f60:	a71ff0ef          	jal	ra,800009d0 <putch>
    80000f64:	0019899b          	addiw	s3,s3,1
    80000f68:	00090413          	mv	s0,s2
    80000f6c:	ff5460e3          	bltu	s0,s5,80000f4c <printf+0x84>
    80000f70:	25813083          	ld	ra,600(sp)
    80000f74:	25013403          	ld	s0,592(sp)
    80000f78:	24813483          	ld	s1,584(sp)
    80000f7c:	24013903          	ld	s2,576(sp)
    80000f80:	23013a03          	ld	s4,560(sp)
    80000f84:	22813a83          	ld	s5,552(sp)
    80000f88:	22013b03          	ld	s6,544(sp)
    80000f8c:	21813b83          	ld	s7,536(sp)
    80000f90:	21013c03          	ld	s8,528(sp)
    80000f94:	20813c83          	ld	s9,520(sp)
    80000f98:	20013d03          	ld	s10,512(sp)
    80000f9c:	00098513          	mv	a0,s3
    80000fa0:	23813983          	ld	s3,568(sp)
    80000fa4:	2a010113          	addi	sp,sp,672
    80000fa8:	00008067          	ret
    80000fac:	000a0513          	mv	a0,s4
    80000fb0:	d05ff0ef          	jal	ra,80000cb4 <strlen>
    80000fb4:	00a96663          	bltu	s2,a0,80000fc0 <printf+0xf8>
    80000fb8:	00044503          	lbu	a0,0(s0)
    80000fbc:	fa1ff06f          	j	80000f5c <printf+0x94>
    80000fc0:	00144783          	lbu	a5,1(s0)
    80000fc4:	07778463          	beq	a5,s7,8000102c <printf+0x164>
    80000fc8:	03878063          	beq	a5,s8,80000fe8 <printf+0x120>
    80000fcc:	0b679e63          	bne	a5,s6,80001088 <printf+0x1c0>
    80000fd0:	0024849b          	addiw	s1,s1,2
    80000fd4:	02500513          	li	a0,37
    80000fd8:	00048413          	mv	s0,s1
    80000fdc:	9f5ff0ef          	jal	ra,800009d0 <putch>
    80000fe0:	f75466e3          	bltu	s0,s5,80000f4c <printf+0x84>
    80000fe4:	f8dff06f          	j	80000f70 <printf+0xa8>
    80000fe8:	00013783          	ld	a5,0(sp)
    80000fec:	0024849b          	addiw	s1,s1,2
    80000ff0:	00048413          	mv	s0,s1
    80000ff4:	0007b903          	ld	s2,0(a5)
    80000ff8:	00878793          	addi	a5,a5,8
    80000ffc:	00f13023          	sd	a5,0(sp)
    80001000:	00094503          	lbu	a0,0(s2)
    80001004:	f60504e3          	beqz	a0,80000f6c <printf+0xa4>
    80001008:	412c8d3b          	subw	s10,s9,s2
    8000100c:	013d0d3b          	addw	s10,s10,s3
    80001010:	9c1ff0ef          	jal	ra,800009d0 <putch>
    80001014:	00194503          	lbu	a0,1(s2)
    80001018:	012d09bb          	addw	s3,s10,s2
    8000101c:	00190913          	addi	s2,s2,1
    80001020:	fe0518e3          	bnez	a0,80001010 <printf+0x148>
    80001024:	f35464e3          	bltu	s0,s5,80000f4c <printf+0x84>
    80001028:	f49ff06f          	j	80000f70 <printf+0xa8>
    8000102c:	00013783          	ld	a5,0(sp)
    80001030:	00810593          	addi	a1,sp,8
    80001034:	0007a503          	lw	a0,0(a5)
    80001038:	00878793          	addi	a5,a5,8
    8000103c:	00f13023          	sd	a5,0(sp)
    80001040:	d9dff0ef          	jal	ra,80000ddc <int2str>
    80001044:	02a05a63          	blez	a0,80001078 <printf+0x1b0>
    80001048:	fff5091b          	addiw	s2,a0,-1
    8000104c:	02091913          	slli	s2,s2,0x20
    80001050:	02095913          	srli	s2,s2,0x20
    80001054:	00910793          	addi	a5,sp,9
    80001058:	00810413          	addi	s0,sp,8
    8000105c:	00050d1b          	sext.w	s10,a0
    80001060:	01278933          	add	s2,a5,s2
    80001064:	00044503          	lbu	a0,0(s0)
    80001068:	00140413          	addi	s0,s0,1
    8000106c:	965ff0ef          	jal	ra,800009d0 <putch>
    80001070:	fe891ae3          	bne	s2,s0,80001064 <printf+0x19c>
    80001074:	01a989bb          	addw	s3,s3,s10
    80001078:	0024849b          	addiw	s1,s1,2
    8000107c:	00048413          	mv	s0,s1
    80001080:	ed5466e3          	bltu	s0,s5,80000f4c <printf+0x84>
    80001084:	eedff06f          	j	80000f70 <printf+0xa8>
    80001088:	fff00993          	li	s3,-1
    8000108c:	ee5ff06f          	j	80000f70 <printf+0xa8>
    80001090:	00000993          	li	s3,0
    80001094:	eddff06f          	j	80000f70 <printf+0xa8>

0000000080001098 <malloc>:
    80001098:	fe010113          	addi	sp,sp,-32
    8000109c:	00913423          	sd	s1,8(sp)
    800010a0:	00001497          	auipc	s1,0x1
    800010a4:	ee848493          	addi	s1,s1,-280 # 80001f88 <last>
    800010a8:	0004b703          	ld	a4,0(s1)
    800010ac:	00813823          	sd	s0,16(sp)
    800010b0:	01213023          	sd	s2,0(sp)
    800010b4:	00113c23          	sd	ra,24(sp)
    800010b8:	00050413          	mv	s0,a0
    800010bc:	00000917          	auipc	s2,0x0
    800010c0:	6bc90913          	addi	s2,s2,1724 # 80001778 <heap>
    800010c4:	04070063          	beqz	a4,80001104 <malloc+0x6c>
    800010c8:	0084b503          	ld	a0,8(s1)
    800010cc:	00740793          	addi	a5,s0,7
    800010d0:	00893683          	ld	a3,8(s2)
    800010d4:	00a70533          	add	a0,a4,a0
    800010d8:	ff87f793          	andi	a5,a5,-8
    800010dc:	00a4b023          	sd	a0,0(s1)
    800010e0:	00f50733          	add	a4,a0,a5
    800010e4:	04d77c63          	bgeu	a4,a3,8000113c <malloc+0xa4>
    800010e8:	01813083          	ld	ra,24(sp)
    800010ec:	01013403          	ld	s0,16(sp)
    800010f0:	00f4b423          	sd	a5,8(s1)
    800010f4:	00013903          	ld	s2,0(sp)
    800010f8:	00813483          	ld	s1,8(sp)
    800010fc:	02010113          	addi	sp,sp,32
    80001100:	00008067          	ret
    80001104:	00093583          	ld	a1,0(s2)
    80001108:	00000517          	auipc	a0,0x0
    8000110c:	64850513          	addi	a0,a0,1608 # 80001750 <_etext+0x5dc>
    80001110:	00b4b023          	sd	a1,0(s1)
    80001114:	db5ff0ef          	jal	ra,80000ec8 <printf>
    80001118:	0004b703          	ld	a4,0(s1)
    8000111c:	0084b503          	ld	a0,8(s1)
    80001120:	00740793          	addi	a5,s0,7
    80001124:	00893683          	ld	a3,8(s2)
    80001128:	00a70533          	add	a0,a4,a0
    8000112c:	ff87f793          	andi	a5,a5,-8
    80001130:	00a4b023          	sd	a0,0(s1)
    80001134:	00f50733          	add	a4,a0,a5
    80001138:	fad768e3          	bltu	a4,a3,800010e8 <malloc+0x50>
    8000113c:	01813083          	ld	ra,24(sp)
    80001140:	01013403          	ld	s0,16(sp)
    80001144:	00813483          	ld	s1,8(sp)
    80001148:	00013903          	ld	s2,0(sp)
    8000114c:	00000513          	li	a0,0
    80001150:	02010113          	addi	sp,sp,32
    80001154:	00008067          	ret

0000000080001158 <free>:
    80001158:	00001797          	auipc	a5,0x1
    8000115c:	e307b783          	ld	a5,-464(a5) # 80001f88 <last>
    80001160:	00a78463          	beq	a5,a0,80001168 <free+0x10>
    80001164:	00008067          	ret
    80001168:	00001797          	auipc	a5,0x1
    8000116c:	e207b423          	sd	zero,-472(a5) # 80001f90 <last+0x8>
    80001170:	00008067          	ret
