
/home/porterlu/ysyx-workbench/am-kernels/benchmarks/dhrystone/build/dhrystone-riscv64-nemu.elf:     file format elf64-littleriscv


Disassembly of section .text:

0000000080000000 <_start>:
    80000000:	00000413          	li	s0,0
    80000004:	0000d117          	auipc	sp,0xd
    80000008:	ffc10113          	addi	sp,sp,-4 # 8000d000 <_end>
    8000000c:	3c1000ef          	jal	ra,80000bcc <_trm_init>

0000000080000010 <Proc_6>:
    80000010:	00200713          	li	a4,2
    80000014:	04e50263          	beq	a0,a4,80000058 <Proc_6+0x48>
    80000018:	00300793          	li	a5,3
    8000001c:	00f5a023          	sw	a5,0(a1)
    80000020:	00100793          	li	a5,1
    80000024:	00f50c63          	beq	a0,a5,8000003c <Proc_6+0x2c>
    80000028:	02a7f263          	bgeu	a5,a0,8000004c <Proc_6+0x3c>
    8000002c:	00400793          	li	a5,4
    80000030:	02f51263          	bne	a0,a5,80000054 <Proc_6+0x44>
    80000034:	00e5a023          	sw	a4,0(a1)
    80000038:	00008067          	ret
    8000003c:	00004717          	auipc	a4,0x4
    80000040:	48c72703          	lw	a4,1164(a4) # 800044c8 <Int_Glob>
    80000044:	06400793          	li	a5,100
    80000048:	fee7d8e3          	bge	a5,a4,80000038 <Proc_6+0x28>
    8000004c:	0005a023          	sw	zero,0(a1)
    80000050:	00008067          	ret
    80000054:	00008067          	ret
    80000058:	00100793          	li	a5,1
    8000005c:	00f5a023          	sw	a5,0(a1)
    80000060:	00008067          	ret

0000000080000064 <Proc_1>:
    80000064:	fe010113          	addi	sp,sp,-32
    80000068:	00913423          	sd	s1,8(sp)
    8000006c:	00004497          	auipc	s1,0x4
    80000070:	46448493          	addi	s1,s1,1124 # 800044d0 <Ptr_Glob>
    80000074:	0004b783          	ld	a5,0(s1)
    80000078:	00813823          	sd	s0,16(sp)
    8000007c:	00053403          	ld	s0,0(a0)
    80000080:	0007b683          	ld	a3,0(a5)
    80000084:	0307b703          	ld	a4,48(a5)
    80000088:	0087b303          	ld	t1,8(a5)
    8000008c:	0107b883          	ld	a7,16(a5)
    80000090:	0187b803          	ld	a6,24(a5)
    80000094:	0207b583          	ld	a1,32(a5)
    80000098:	0287b603          	ld	a2,40(a5)
    8000009c:	00113c23          	sd	ra,24(sp)
    800000a0:	00d43023          	sd	a3,0(s0)
    800000a4:	00053683          	ld	a3,0(a0)
    800000a8:	00643423          	sd	t1,8(s0)
    800000ac:	01143823          	sd	a7,16(s0)
    800000b0:	02e43823          	sd	a4,48(s0)
    800000b4:	01043c23          	sd	a6,24(s0)
    800000b8:	00500713          	li	a4,5
    800000bc:	02b43023          	sd	a1,32(s0)
    800000c0:	02c43423          	sd	a2,40(s0)
    800000c4:	00e52823          	sw	a4,16(a0)
    800000c8:	00d43023          	sd	a3,0(s0)
    800000cc:	0007b683          	ld	a3,0(a5)
    800000d0:	00004797          	auipc	a5,0x4
    800000d4:	3f87a783          	lw	a5,1016(a5) # 800044c8 <Int_Glob>
    800000d8:	00e42823          	sw	a4,16(s0)
    800000dc:	00d43023          	sd	a3,0(s0)
    800000e0:	0004b703          	ld	a4,0(s1)
    800000e4:	00c7879b          	addiw	a5,a5,12
    800000e8:	00f72823          	sw	a5,16(a4)
    800000ec:	00842783          	lw	a5,8(s0)
    800000f0:	04078a63          	beqz	a5,80000144 <Proc_1+0xe0>
    800000f4:	00053783          	ld	a5,0(a0)
    800000f8:	01813083          	ld	ra,24(sp)
    800000fc:	01013403          	ld	s0,16(sp)
    80000100:	0007b883          	ld	a7,0(a5)
    80000104:	0087b803          	ld	a6,8(a5)
    80000108:	0107b583          	ld	a1,16(a5)
    8000010c:	0187b603          	ld	a2,24(a5)
    80000110:	0207b683          	ld	a3,32(a5)
    80000114:	0287b703          	ld	a4,40(a5)
    80000118:	0307b783          	ld	a5,48(a5)
    8000011c:	01153023          	sd	a7,0(a0)
    80000120:	01053423          	sd	a6,8(a0)
    80000124:	00b53823          	sd	a1,16(a0)
    80000128:	00c53c23          	sd	a2,24(a0)
    8000012c:	02d53023          	sd	a3,32(a0)
    80000130:	02e53423          	sd	a4,40(a0)
    80000134:	02f53823          	sd	a5,48(a0)
    80000138:	00813483          	ld	s1,8(sp)
    8000013c:	02010113          	addi	sp,sp,32
    80000140:	00008067          	ret
    80000144:	00c52503          	lw	a0,12(a0)
    80000148:	00600793          	li	a5,6
    8000014c:	00f42823          	sw	a5,16(s0)
    80000150:	00c40593          	addi	a1,s0,12
    80000154:	ebdff0ef          	jal	ra,80000010 <Proc_6>
    80000158:	0004b703          	ld	a4,0(s1)
    8000015c:	01042783          	lw	a5,16(s0)
    80000160:	01813083          	ld	ra,24(sp)
    80000164:	00073703          	ld	a4,0(a4)
    80000168:	00c7879b          	addiw	a5,a5,12
    8000016c:	00f42823          	sw	a5,16(s0)
    80000170:	00e43023          	sd	a4,0(s0)
    80000174:	01013403          	ld	s0,16(sp)
    80000178:	00813483          	ld	s1,8(sp)
    8000017c:	02010113          	addi	sp,sp,32
    80000180:	00008067          	ret

0000000080000184 <Proc_8>:
    80000184:	0056079b          	addiw	a5,a2,5
    80000188:	0c800713          	li	a4,200
    8000018c:	02e78733          	mul	a4,a5,a4
    80000190:	00078813          	mv	a6,a5
    80000194:	00261613          	slli	a2,a2,0x2
    80000198:	00279793          	slli	a5,a5,0x2
    8000019c:	00f50533          	add	a0,a0,a5
    800001a0:	00d52023          	sw	a3,0(a0)
    800001a4:	00d52223          	sw	a3,4(a0)
    800001a8:	07052c23          	sw	a6,120(a0)
    800001ac:	00c707b3          	add	a5,a4,a2
    800001b0:	00f587b3          	add	a5,a1,a5
    800001b4:	0107a683          	lw	a3,16(a5)
    800001b8:	0107aa23          	sw	a6,20(a5)
    800001bc:	0107ac23          	sw	a6,24(a5)
    800001c0:	0016869b          	addiw	a3,a3,1
    800001c4:	00d7a823          	sw	a3,16(a5)
    800001c8:	00052683          	lw	a3,0(a0)
    800001cc:	00e585b3          	add	a1,a1,a4
    800001d0:	000017b7          	lui	a5,0x1
    800001d4:	00c585b3          	add	a1,a1,a2
    800001d8:	00b785b3          	add	a1,a5,a1
    800001dc:	00500793          	li	a5,5
    800001e0:	fad5aa23          	sw	a3,-76(a1)
    800001e4:	00004717          	auipc	a4,0x4
    800001e8:	2ef72223          	sw	a5,740(a4) # 800044c8 <Int_Glob>
    800001ec:	00008067          	ret

00000000800001f0 <Func_2>:
    800001f0:	ff010113          	addi	sp,sp,-16
    800001f4:	00113423          	sd	ra,8(sp)
    800001f8:	00004817          	auipc	a6,0x4
    800001fc:	2d480813          	addi	a6,a6,724 # 800044cc <Ch_1_Glob>
    80000200:	00254783          	lbu	a5,2(a0)
    80000204:	0035c703          	lbu	a4,3(a1)
    80000208:	00084603          	lbu	a2,0(a6)
    8000020c:	00000693          	li	a3,0
    80000210:	02e78c63          	beq	a5,a4,80000248 <Func_2+0x58>
    80000214:	00068463          	beqz	a3,8000021c <Func_2+0x2c>
    80000218:	00c80023          	sb	a2,0(a6)
    8000021c:	219000ef          	jal	ra,80000c34 <strcmp>
    80000220:	00000793          	li	a5,0
    80000224:	00a05a63          	blez	a0,80000238 <Func_2+0x48>
    80000228:	00a00793          	li	a5,10
    8000022c:	00004717          	auipc	a4,0x4
    80000230:	28f72e23          	sw	a5,668(a4) # 800044c8 <Int_Glob>
    80000234:	00100793          	li	a5,1
    80000238:	00813083          	ld	ra,8(sp)
    8000023c:	00078513          	mv	a0,a5
    80000240:	01010113          	addi	sp,sp,16
    80000244:	00008067          	ret
    80000248:	00100693          	li	a3,1
    8000024c:	00078613          	mv	a2,a5
    80000250:	fc1ff06f          	j	80000210 <Func_2+0x20>

0000000080000254 <main>:
    80000254:	f4010113          	addi	sp,sp,-192
    80000258:	0a113c23          	sd	ra,184(sp)
    8000025c:	0a813823          	sd	s0,176(sp)
    80000260:	0a913423          	sd	s1,168(sp)
    80000264:	0b213023          	sd	s2,160(sp)
    80000268:	09313c23          	sd	s3,152(sp)
    8000026c:	09413823          	sd	s4,144(sp)
    80000270:	09513423          	sd	s5,136(sp)
    80000274:	09613023          	sd	s6,128(sp)
    80000278:	07713c23          	sd	s7,120(sp)
    8000027c:	07813823          	sd	s8,112(sp)
    80000280:	07913423          	sd	s9,104(sp)
    80000284:	07a13023          	sd	s10,96(sp)
    80000288:	05b13c23          	sd	s11,88(sp)
    8000028c:	7d8000ef          	jal	ra,80000a64 <ioe_init>
    80000290:	00001697          	auipc	a3,0x1
    80000294:	2e868693          	addi	a3,a3,744 # 80001578 <free_mem>
    80000298:	0006b783          	ld	a5,0(a3)
    8000029c:	0037f713          	andi	a4,a5,3
    800002a0:	00070c63          	beqz	a4,800002b8 <main+0x64>
    800002a4:	00178713          	addi	a4,a5,1 # 1001 <_entry_offset+0x1001>
    800002a8:	00377613          	andi	a2,a4,3
    800002ac:	00070793          	mv	a5,a4
    800002b0:	00170713          	addi	a4,a4,1
    800002b4:	fe061ae3          	bnez	a2,800002a8 <main+0x54>
    800002b8:	00004717          	auipc	a4,0x4
    800002bc:	20870713          	addi	a4,a4,520 # 800044c0 <Next_Ptr_Glob>
    800002c0:	00f73023          	sd	a5,0(a4)
    800002c4:	0037f713          	andi	a4,a5,3
    800002c8:	03878513          	addi	a0,a5,56
    800002cc:	00070c63          	beqz	a4,800002e4 <main+0x90>
    800002d0:	03978713          	addi	a4,a5,57
    800002d4:	00377613          	andi	a2,a4,3
    800002d8:	00070513          	mv	a0,a4
    800002dc:	00170713          	addi	a4,a4,1
    800002e0:	fe061ae3          	bnez	a2,800002d4 <main+0x80>
    800002e4:	00004a97          	auipc	s5,0x4
    800002e8:	1eca8a93          	addi	s5,s5,492 # 800044d0 <Ptr_Glob>
    800002ec:	00aab023          	sd	a0,0(s5)
    800002f0:	00f53023          	sd	a5,0(a0)
    800002f4:	00100793          	li	a5,1
    800002f8:	02179793          	slli	a5,a5,0x21
    800002fc:	00f53423          	sd	a5,8(a0)
    80000300:	02800793          	li	a5,40
    80000304:	03850713          	addi	a4,a0,56
    80000308:	00f52823          	sw	a5,16(a0)
    8000030c:	00001597          	auipc	a1,0x1
    80000310:	c9458593          	addi	a1,a1,-876 # 80000fa0 <_etext+0x14>
    80000314:	01450513          	addi	a0,a0,20
    80000318:	00e6b023          	sd	a4,0(a3)
    8000031c:	0f9000ef          	jal	ra,80000c14 <strcpy>
    80000320:	00001597          	auipc	a1,0x1
    80000324:	ca058593          	addi	a1,a1,-864 # 80000fc0 <_etext+0x34>
    80000328:	01010513          	addi	a0,sp,16
    8000032c:	0e9000ef          	jal	ra,80000c14 <strcpy>
    80000330:	00a00793          	li	a5,10
    80000334:	00002717          	auipc	a4,0x2
    80000338:	a7470713          	addi	a4,a4,-1420 # 80001da8 <Arr_2_Glob>
    8000033c:	00001597          	auipc	a1,0x1
    80000340:	ca458593          	addi	a1,a1,-860 # 80000fe0 <_etext+0x54>
    80000344:	00001517          	auipc	a0,0x1
    80000348:	cac50513          	addi	a0,a0,-852 # 80000ff0 <_etext+0x64>
    8000034c:	64f72e23          	sw	a5,1628(a4)
    80000350:	0007ab37          	lui	s6,0x7a
    80000354:	21d000ef          	jal	ra,80000d70 <printf>
    80000358:	120b0593          	addi	a1,s6,288 # 7a120 <_entry_offset+0x7a120>
    8000035c:	00001517          	auipc	a0,0x1
    80000360:	cbc50513          	addi	a0,a0,-836 # 80001018 <_etext+0x8c>
    80000364:	00004797          	auipc	a5,0x4
    80000368:	1607aa23          	sw	zero,372(a5) # 800044d8 <Done>
    8000036c:	205000ef          	jal	ra,80000d70 <printf>
    80000370:	03010593          	addi	a1,sp,48
    80000374:	00600513          	li	a0,6
    80000378:	748000ef          	jal	ra,80000ac0 <ioe_read>
    8000037c:	03013783          	ld	a5,48(sp)
    80000380:	3e800713          	li	a4,1000
    80000384:	00100c13          	li	s8,1
    80000388:	02e7d7b3          	divu	a5,a5,a4
    8000038c:	00002717          	auipc	a4,0x2
    80000390:	a1470713          	addi	a4,a4,-1516 # 80001da0 <Begin_Time>
    80000394:	00004497          	auipc	s1,0x4
    80000398:	13848493          	addi	s1,s1,312 # 800044cc <Ch_1_Glob>
    8000039c:	00004917          	auipc	s2,0x4
    800003a0:	20c90913          	addi	s2,s2,524 # 800045a8 <Bool_Glob>
    800003a4:	00004c97          	auipc	s9,0x4
    800003a8:	129c8c93          	addi	s9,s9,297 # 800044cd <Ch_2_Glob>
    800003ac:	00004997          	auipc	s3,0x4
    800003b0:	11c98993          	addi	s3,s3,284 # 800044c8 <Int_Glob>
    800003b4:	04300b93          	li	s7,67
    800003b8:	00001a17          	auipc	s4,0x1
    800003bc:	ca8a0a13          	addi	s4,s4,-856 # 80001060 <_etext+0xd4>
    800003c0:	121b0b13          	addi	s6,s6,289
    800003c4:	02079793          	slli	a5,a5,0x20
    800003c8:	0207d793          	srli	a5,a5,0x20
    800003cc:	00f73023          	sd	a5,0(a4)
    800003d0:	04100793          	li	a5,65
    800003d4:	00f48023          	sb	a5,0(s1)
    800003d8:	00100793          	li	a5,1
    800003dc:	00001597          	auipc	a1,0x1
    800003e0:	c6458593          	addi	a1,a1,-924 # 80001040 <_etext+0xb4>
    800003e4:	00f92023          	sw	a5,0(s2)
    800003e8:	03010513          	addi	a0,sp,48
    800003ec:	04200793          	li	a5,66
    800003f0:	00fc8023          	sb	a5,0(s9)
    800003f4:	021000ef          	jal	ra,80000c14 <strcpy>
    800003f8:	03010593          	addi	a1,sp,48
    800003fc:	01010513          	addi	a0,sp,16
    80000400:	df1ff0ef          	jal	ra,800001f0 <Func_2>
    80000404:	00153793          	seqz	a5,a0
    80000408:	00300613          	li	a2,3
    8000040c:	00002597          	auipc	a1,0x2
    80000410:	99c58593          	addi	a1,a1,-1636 # 80001da8 <Arr_2_Glob>
    80000414:	00700693          	li	a3,7
    80000418:	00004517          	auipc	a0,0x4
    8000041c:	0c850513          	addi	a0,a0,200 # 800044e0 <Arr_1_Glob>
    80000420:	00f92023          	sw	a5,0(s2)
    80000424:	d61ff0ef          	jal	ra,80000184 <Proc_8>
    80000428:	000ab503          	ld	a0,0(s5)
    8000042c:	04100413          	li	s0,65
    80000430:	00100d13          	li	s10,1
    80000434:	c31ff0ef          	jal	ra,80000064 <Proc_1>
    80000438:	000cc583          	lbu	a1,0(s9)
    8000043c:	04000793          	li	a5,64
    80000440:	00300613          	li	a2,3
    80000444:	58b7f063          	bgeu	a5,a1,800009c4 <main+0x770>
    80000448:	000cc783          	lbu	a5,0(s9)
    8000044c:	0014041b          	addiw	s0,s0,1
    80000450:	0ff47413          	andi	s0,s0,255
    80000454:	0287ec63          	bltu	a5,s0,8000048c <main+0x238>
    80000458:	00000793          	li	a5,0
    8000045c:	55740c63          	beq	s0,s7,800009b4 <main+0x760>
    80000460:	fefd14e3          	bne	s10,a5,80000448 <main+0x1f4>
    80000464:	000a0593          	mv	a1,s4
    80000468:	03010513          	addi	a0,sp,48
    8000046c:	7a8000ef          	jal	ra,80000c14 <strcpy>
    80000470:	000cc783          	lbu	a5,0(s9)
    80000474:	0014041b          	addiw	s0,s0,1
    80000478:	0189a023          	sw	s8,0(s3)
    8000047c:	0ff47413          	andi	s0,s0,255
    80000480:	00000d13          	li	s10,0
    80000484:	000c0613          	mv	a2,s8
    80000488:	fc87f8e3          	bgeu	a5,s0,80000458 <main+0x204>
    8000048c:	0016179b          	slliw	a5,a2,0x1
    80000490:	00c787bb          	addw	a5,a5,a2
    80000494:	00700613          	li	a2,7
    80000498:	02c7cdbb          	divw	s11,a5,a2
    8000049c:	ff97879b          	addiw	a5,a5,-7
    800004a0:	0037959b          	slliw	a1,a5,0x3
    800004a4:	40f587bb          	subw	a5,a1,a5
    800004a8:	41b7843b          	subw	s0,a5,s11
    800004ac:	0004c783          	lbu	a5,0(s1)
    800004b0:	04100713          	li	a4,65
    800004b4:	00e79863          	bne	a5,a4,800004c4 <main+0x270>
    800004b8:	0009a783          	lw	a5,0(s3)
    800004bc:	009d831b          	addiw	t1,s11,9
    800004c0:	40f30dbb          	subw	s11,t1,a5
    800004c4:	001c0c1b          	addiw	s8,s8,1
    800004c8:	f16c14e3          	bne	s8,s6,800003d0 <main+0x17c>
    800004cc:	00810593          	addi	a1,sp,8
    800004d0:	00600513          	li	a0,6
    800004d4:	5ec000ef          	jal	ra,80000ac0 <ioe_read>
    800004d8:	00002797          	auipc	a5,0x2
    800004dc:	8c878793          	addi	a5,a5,-1848 # 80001da0 <Begin_Time>
    800004e0:	0007b603          	ld	a2,0(a5)
    800004e4:	00813783          	ld	a5,8(sp)
    800004e8:	3e800593          	li	a1,1000
    800004ec:	00100513          	li	a0,1
    800004f0:	02b7d7b3          	divu	a5,a5,a1
    800004f4:	0009a583          	lw	a1,0(s3)
    800004f8:	00002997          	auipc	s3,0x2
    800004fc:	8a098993          	addi	s3,s3,-1888 # 80001d98 <User_Time>
    80000500:	00004717          	auipc	a4,0x4
    80000504:	fca72c23          	sw	a0,-40(a4) # 800044d8 <Done>
    80000508:	00500513          	li	a0,5
    8000050c:	02079793          	slli	a5,a5,0x20
    80000510:	0207d793          	srli	a5,a5,0x20
    80000514:	40c78633          	sub	a2,a5,a2
    80000518:	00004717          	auipc	a4,0x4
    8000051c:	faf73023          	sd	a5,-96(a4) # 800044b8 <End_Time>
    80000520:	00c9b023          	sd	a2,0(s3)
    80000524:	02a58463          	beq	a1,a0,8000054c <main+0x2f8>
    80000528:	00001517          	auipc	a0,0x1
    8000052c:	b5850513          	addi	a0,a0,-1192 # 80001080 <_etext+0xf4>
    80000530:	00001797          	auipc	a5,0x1
    80000534:	0407a823          	sw	zero,80(a5) # 80001580 <pass>
    80000538:	039000ef          	jal	ra,80000d70 <printf>
    8000053c:	00500593          	li	a1,5
    80000540:	00001517          	auipc	a0,0x1
    80000544:	b6050513          	addi	a0,a0,-1184 # 800010a0 <_etext+0x114>
    80000548:	029000ef          	jal	ra,80000d70 <printf>
    8000054c:	00092583          	lw	a1,0(s2)
    80000550:	00100793          	li	a5,1
    80000554:	02f58463          	beq	a1,a5,8000057c <main+0x328>
    80000558:	00001517          	auipc	a0,0x1
    8000055c:	b6850513          	addi	a0,a0,-1176 # 800010c0 <_etext+0x134>
    80000560:	00001797          	auipc	a5,0x1
    80000564:	0207a023          	sw	zero,32(a5) # 80001580 <pass>
    80000568:	009000ef          	jal	ra,80000d70 <printf>
    8000056c:	00100593          	li	a1,1
    80000570:	00001517          	auipc	a0,0x1
    80000574:	b3050513          	addi	a0,a0,-1232 # 800010a0 <_etext+0x114>
    80000578:	7f8000ef          	jal	ra,80000d70 <printf>
    8000057c:	0004c583          	lbu	a1,0(s1)
    80000580:	04100793          	li	a5,65
    80000584:	02f58463          	beq	a1,a5,800005ac <main+0x358>
    80000588:	00001517          	auipc	a0,0x1
    8000058c:	b5850513          	addi	a0,a0,-1192 # 800010e0 <_etext+0x154>
    80000590:	00001797          	auipc	a5,0x1
    80000594:	fe07a823          	sw	zero,-16(a5) # 80001580 <pass>
    80000598:	7d8000ef          	jal	ra,80000d70 <printf>
    8000059c:	04100593          	li	a1,65
    800005a0:	00001517          	auipc	a0,0x1
    800005a4:	b6050513          	addi	a0,a0,-1184 # 80001100 <_etext+0x174>
    800005a8:	7c8000ef          	jal	ra,80000d70 <printf>
    800005ac:	000cc583          	lbu	a1,0(s9)
    800005b0:	04200793          	li	a5,66
    800005b4:	02f58463          	beq	a1,a5,800005dc <main+0x388>
    800005b8:	00001517          	auipc	a0,0x1
    800005bc:	b6850513          	addi	a0,a0,-1176 # 80001120 <_etext+0x194>
    800005c0:	00001797          	auipc	a5,0x1
    800005c4:	fc07a023          	sw	zero,-64(a5) # 80001580 <pass>
    800005c8:	7a8000ef          	jal	ra,80000d70 <printf>
    800005cc:	04200593          	li	a1,66
    800005d0:	00001517          	auipc	a0,0x1
    800005d4:	b3050513          	addi	a0,a0,-1232 # 80001100 <_etext+0x174>
    800005d8:	798000ef          	jal	ra,80000d70 <printf>
    800005dc:	00004597          	auipc	a1,0x4
    800005e0:	f245a583          	lw	a1,-220(a1) # 80004500 <Arr_1_Glob+0x20>
    800005e4:	00700793          	li	a5,7
    800005e8:	02f58463          	beq	a1,a5,80000610 <main+0x3bc>
    800005ec:	00001517          	auipc	a0,0x1
    800005f0:	b5450513          	addi	a0,a0,-1196 # 80001140 <_etext+0x1b4>
    800005f4:	00001797          	auipc	a5,0x1
    800005f8:	f807a623          	sw	zero,-116(a5) # 80001580 <pass>
    800005fc:	774000ef          	jal	ra,80000d70 <printf>
    80000600:	00700593          	li	a1,7
    80000604:	00001517          	auipc	a0,0x1
    80000608:	a9c50513          	addi	a0,a0,-1380 # 800010a0 <_etext+0x114>
    8000060c:	764000ef          	jal	ra,80000d70 <printf>
    80000610:	00001797          	auipc	a5,0x1
    80000614:	79878793          	addi	a5,a5,1944 # 80001da8 <Arr_2_Glob>
    80000618:	65c7a583          	lw	a1,1628(a5)
    8000061c:	0007a7b7          	lui	a5,0x7a
    80000620:	12a78793          	addi	a5,a5,298 # 7a12a <_entry_offset+0x7a12a>
    80000624:	02f58263          	beq	a1,a5,80000648 <main+0x3f4>
    80000628:	00001517          	auipc	a0,0x1
    8000062c:	b3850513          	addi	a0,a0,-1224 # 80001160 <_etext+0x1d4>
    80000630:	00001797          	auipc	a5,0x1
    80000634:	f407a823          	sw	zero,-176(a5) # 80001580 <pass>
    80000638:	738000ef          	jal	ra,80000d70 <printf>
    8000063c:	00001517          	auipc	a0,0x1
    80000640:	b4450513          	addi	a0,a0,-1212 # 80001180 <_etext+0x1f4>
    80000644:	72c000ef          	jal	ra,80000d70 <printf>
    80000648:	000ab783          	ld	a5,0(s5)
    8000064c:	0087a583          	lw	a1,8(a5)
    80000650:	02058463          	beqz	a1,80000678 <main+0x424>
    80000654:	00001517          	auipc	a0,0x1
    80000658:	b5c50513          	addi	a0,a0,-1188 # 800011b0 <_etext+0x224>
    8000065c:	00001797          	auipc	a5,0x1
    80000660:	f207a223          	sw	zero,-220(a5) # 80001580 <pass>
    80000664:	70c000ef          	jal	ra,80000d70 <printf>
    80000668:	00000593          	li	a1,0
    8000066c:	00001517          	auipc	a0,0x1
    80000670:	a3450513          	addi	a0,a0,-1484 # 800010a0 <_etext+0x114>
    80000674:	6fc000ef          	jal	ra,80000d70 <printf>
    80000678:	000ab703          	ld	a4,0(s5)
    8000067c:	00200793          	li	a5,2
    80000680:	00c72583          	lw	a1,12(a4)
    80000684:	02f58463          	beq	a1,a5,800006ac <main+0x458>
    80000688:	00001517          	auipc	a0,0x1
    8000068c:	b5050513          	addi	a0,a0,-1200 # 800011d8 <_etext+0x24c>
    80000690:	00001797          	auipc	a5,0x1
    80000694:	ee07a823          	sw	zero,-272(a5) # 80001580 <pass>
    80000698:	6d8000ef          	jal	ra,80000d70 <printf>
    8000069c:	00200593          	li	a1,2
    800006a0:	00001517          	auipc	a0,0x1
    800006a4:	a0050513          	addi	a0,a0,-1536 # 800010a0 <_etext+0x114>
    800006a8:	6c8000ef          	jal	ra,80000d70 <printf>
    800006ac:	000ab703          	ld	a4,0(s5)
    800006b0:	01100793          	li	a5,17
    800006b4:	01072583          	lw	a1,16(a4)
    800006b8:	02f58463          	beq	a1,a5,800006e0 <main+0x48c>
    800006bc:	00001517          	auipc	a0,0x1
    800006c0:	b4450513          	addi	a0,a0,-1212 # 80001200 <_etext+0x274>
    800006c4:	00001797          	auipc	a5,0x1
    800006c8:	ea07ae23          	sw	zero,-324(a5) # 80001580 <pass>
    800006cc:	6a4000ef          	jal	ra,80000d70 <printf>
    800006d0:	01100593          	li	a1,17
    800006d4:	00001517          	auipc	a0,0x1
    800006d8:	9cc50513          	addi	a0,a0,-1588 # 800010a0 <_etext+0x114>
    800006dc:	694000ef          	jal	ra,80000d70 <printf>
    800006e0:	000ab503          	ld	a0,0(s5)
    800006e4:	00001597          	auipc	a1,0x1
    800006e8:	8bc58593          	addi	a1,a1,-1860 # 80000fa0 <_etext+0x14>
    800006ec:	01450513          	addi	a0,a0,20
    800006f0:	544000ef          	jal	ra,80000c34 <strcmp>
    800006f4:	02050663          	beqz	a0,80000720 <main+0x4cc>
    800006f8:	000ab583          	ld	a1,0(s5)
    800006fc:	00001517          	auipc	a0,0x1
    80000700:	b2c50513          	addi	a0,a0,-1236 # 80001228 <_etext+0x29c>
    80000704:	00001797          	auipc	a5,0x1
    80000708:	e607ae23          	sw	zero,-388(a5) # 80001580 <pass>
    8000070c:	01458593          	addi	a1,a1,20
    80000710:	660000ef          	jal	ra,80000d70 <printf>
    80000714:	00001517          	auipc	a0,0x1
    80000718:	b3c50513          	addi	a0,a0,-1220 # 80001250 <_etext+0x2c4>
    8000071c:	654000ef          	jal	ra,80000d70 <printf>
    80000720:	00004797          	auipc	a5,0x4
    80000724:	da078793          	addi	a5,a5,-608 # 800044c0 <Next_Ptr_Glob>
    80000728:	0007b783          	ld	a5,0(a5)
    8000072c:	0087a583          	lw	a1,8(a5)
    80000730:	02058463          	beqz	a1,80000758 <main+0x504>
    80000734:	00001517          	auipc	a0,0x1
    80000738:	b5450513          	addi	a0,a0,-1196 # 80001288 <_etext+0x2fc>
    8000073c:	00001797          	auipc	a5,0x1
    80000740:	e407a223          	sw	zero,-444(a5) # 80001580 <pass>
    80000744:	62c000ef          	jal	ra,80000d70 <printf>
    80000748:	00000593          	li	a1,0
    8000074c:	00001517          	auipc	a0,0x1
    80000750:	95450513          	addi	a0,a0,-1708 # 800010a0 <_etext+0x114>
    80000754:	61c000ef          	jal	ra,80000d70 <printf>
    80000758:	00004797          	auipc	a5,0x4
    8000075c:	d6878793          	addi	a5,a5,-664 # 800044c0 <Next_Ptr_Glob>
    80000760:	0007b703          	ld	a4,0(a5)
    80000764:	00100793          	li	a5,1
    80000768:	00c72583          	lw	a1,12(a4)
    8000076c:	02f58463          	beq	a1,a5,80000794 <main+0x540>
    80000770:	00001517          	auipc	a0,0x1
    80000774:	b4050513          	addi	a0,a0,-1216 # 800012b0 <_etext+0x324>
    80000778:	00001797          	auipc	a5,0x1
    8000077c:	e007a423          	sw	zero,-504(a5) # 80001580 <pass>
    80000780:	5f0000ef          	jal	ra,80000d70 <printf>
    80000784:	00100593          	li	a1,1
    80000788:	00001517          	auipc	a0,0x1
    8000078c:	91850513          	addi	a0,a0,-1768 # 800010a0 <_etext+0x114>
    80000790:	5e0000ef          	jal	ra,80000d70 <printf>
    80000794:	00004797          	auipc	a5,0x4
    80000798:	d2c78793          	addi	a5,a5,-724 # 800044c0 <Next_Ptr_Glob>
    8000079c:	0007b703          	ld	a4,0(a5)
    800007a0:	01200793          	li	a5,18
    800007a4:	01072583          	lw	a1,16(a4)
    800007a8:	02f58463          	beq	a1,a5,800007d0 <main+0x57c>
    800007ac:	00001517          	auipc	a0,0x1
    800007b0:	b2c50513          	addi	a0,a0,-1236 # 800012d8 <_etext+0x34c>
    800007b4:	00001797          	auipc	a5,0x1
    800007b8:	dc07a623          	sw	zero,-564(a5) # 80001580 <pass>
    800007bc:	5b4000ef          	jal	ra,80000d70 <printf>
    800007c0:	01200593          	li	a1,18
    800007c4:	00001517          	auipc	a0,0x1
    800007c8:	8dc50513          	addi	a0,a0,-1828 # 800010a0 <_etext+0x114>
    800007cc:	5a4000ef          	jal	ra,80000d70 <printf>
    800007d0:	00004497          	auipc	s1,0x4
    800007d4:	cf048493          	addi	s1,s1,-784 # 800044c0 <Next_Ptr_Glob>
    800007d8:	0004b503          	ld	a0,0(s1)
    800007dc:	00000597          	auipc	a1,0x0
    800007e0:	7c458593          	addi	a1,a1,1988 # 80000fa0 <_etext+0x14>
    800007e4:	01450513          	addi	a0,a0,20
    800007e8:	44c000ef          	jal	ra,80000c34 <strcmp>
    800007ec:	02050663          	beqz	a0,80000818 <main+0x5c4>
    800007f0:	0004b583          	ld	a1,0(s1)
    800007f4:	00001517          	auipc	a0,0x1
    800007f8:	b0c50513          	addi	a0,a0,-1268 # 80001300 <_etext+0x374>
    800007fc:	00001797          	auipc	a5,0x1
    80000800:	d807a223          	sw	zero,-636(a5) # 80001580 <pass>
    80000804:	01458593          	addi	a1,a1,20
    80000808:	568000ef          	jal	ra,80000d70 <printf>
    8000080c:	00001517          	auipc	a0,0x1
    80000810:	a4450513          	addi	a0,a0,-1468 # 80001250 <_etext+0x2c4>
    80000814:	55c000ef          	jal	ra,80000d70 <printf>
    80000818:	00500793          	li	a5,5
    8000081c:	02fd8663          	beq	s11,a5,80000848 <main+0x5f4>
    80000820:	000d8593          	mv	a1,s11
    80000824:	00001517          	auipc	a0,0x1
    80000828:	b0450513          	addi	a0,a0,-1276 # 80001328 <_etext+0x39c>
    8000082c:	00001797          	auipc	a5,0x1
    80000830:	d407aa23          	sw	zero,-684(a5) # 80001580 <pass>
    80000834:	53c000ef          	jal	ra,80000d70 <printf>
    80000838:	00500593          	li	a1,5
    8000083c:	00001517          	auipc	a0,0x1
    80000840:	86450513          	addi	a0,a0,-1948 # 800010a0 <_etext+0x114>
    80000844:	52c000ef          	jal	ra,80000d70 <printf>
    80000848:	00d00793          	li	a5,13
    8000084c:	02f40663          	beq	s0,a5,80000878 <main+0x624>
    80000850:	00040593          	mv	a1,s0
    80000854:	00001517          	auipc	a0,0x1
    80000858:	af450513          	addi	a0,a0,-1292 # 80001348 <_etext+0x3bc>
    8000085c:	00001797          	auipc	a5,0x1
    80000860:	d207a223          	sw	zero,-732(a5) # 80001580 <pass>
    80000864:	50c000ef          	jal	ra,80000d70 <printf>
    80000868:	00d00593          	li	a1,13
    8000086c:	00001517          	auipc	a0,0x1
    80000870:	83450513          	addi	a0,a0,-1996 # 800010a0 <_etext+0x114>
    80000874:	4fc000ef          	jal	ra,80000d70 <printf>
    80000878:	020d1663          	bnez	s10,800008a4 <main+0x650>
    8000087c:	000d0593          	mv	a1,s10
    80000880:	00001517          	auipc	a0,0x1
    80000884:	ae850513          	addi	a0,a0,-1304 # 80001368 <_etext+0x3dc>
    80000888:	00001797          	auipc	a5,0x1
    8000088c:	ce07ac23          	sw	zero,-776(a5) # 80001580 <pass>
    80000890:	4e0000ef          	jal	ra,80000d70 <printf>
    80000894:	00100593          	li	a1,1
    80000898:	00001517          	auipc	a0,0x1
    8000089c:	80850513          	addi	a0,a0,-2040 # 800010a0 <_etext+0x114>
    800008a0:	4d0000ef          	jal	ra,80000d70 <printf>
    800008a4:	00000597          	auipc	a1,0x0
    800008a8:	71c58593          	addi	a1,a1,1820 # 80000fc0 <_etext+0x34>
    800008ac:	01010513          	addi	a0,sp,16
    800008b0:	384000ef          	jal	ra,80000c34 <strcmp>
    800008b4:	02050463          	beqz	a0,800008dc <main+0x688>
    800008b8:	01010593          	addi	a1,sp,16
    800008bc:	00001517          	auipc	a0,0x1
    800008c0:	acc50513          	addi	a0,a0,-1332 # 80001388 <_etext+0x3fc>
    800008c4:	00001797          	auipc	a5,0x1
    800008c8:	ca07ae23          	sw	zero,-836(a5) # 80001580 <pass>
    800008cc:	4a4000ef          	jal	ra,80000d70 <printf>
    800008d0:	00001517          	auipc	a0,0x1
    800008d4:	ad850513          	addi	a0,a0,-1320 # 800013a8 <_etext+0x41c>
    800008d8:	498000ef          	jal	ra,80000d70 <printf>
    800008dc:	00000597          	auipc	a1,0x0
    800008e0:	76458593          	addi	a1,a1,1892 # 80001040 <_etext+0xb4>
    800008e4:	03010513          	addi	a0,sp,48
    800008e8:	34c000ef          	jal	ra,80000c34 <strcmp>
    800008ec:	02050463          	beqz	a0,80000914 <main+0x6c0>
    800008f0:	03010593          	addi	a1,sp,48
    800008f4:	00001517          	auipc	a0,0x1
    800008f8:	aec50513          	addi	a0,a0,-1300 # 800013e0 <_etext+0x454>
    800008fc:	00001797          	auipc	a5,0x1
    80000900:	c807a223          	sw	zero,-892(a5) # 80001580 <pass>
    80000904:	46c000ef          	jal	ra,80000d70 <printf>
    80000908:	00001517          	auipc	a0,0x1
    8000090c:	af850513          	addi	a0,a0,-1288 # 80001400 <_etext+0x474>
    80000910:	460000ef          	jal	ra,80000d70 <printf>
    80000914:	0009a583          	lw	a1,0(s3)
    80000918:	00001517          	auipc	a0,0x1
    8000091c:	b2050513          	addi	a0,a0,-1248 # 80001438 <_etext+0x4ac>
    80000920:	450000ef          	jal	ra,80000d70 <printf>
    80000924:	00001517          	auipc	a0,0x1
    80000928:	b2c50513          	addi	a0,a0,-1236 # 80001450 <_etext+0x4c4>
    8000092c:	444000ef          	jal	ra,80000d70 <printf>
    80000930:	00001797          	auipc	a5,0x1
    80000934:	c507a783          	lw	a5,-944(a5) # 80001580 <pass>
    80000938:	00000597          	auipc	a1,0x0
    8000093c:	65858593          	addi	a1,a1,1624 # 80000f90 <_etext+0x4>
    80000940:	00079663          	bnez	a5,8000094c <main+0x6f8>
    80000944:	00000597          	auipc	a1,0x0
    80000948:	65458593          	addi	a1,a1,1620 # 80000f98 <_etext+0xc>
    8000094c:	0009b603          	ld	a2,0(s3)
    80000950:	000d77b7          	lui	a5,0xd7
    80000954:	1047879b          	addiw	a5,a5,260
    80000958:	02c7c63b          	divw	a2,a5,a2
    8000095c:	00001517          	auipc	a0,0x1
    80000960:	b2c50513          	addi	a0,a0,-1236 # 80001488 <_etext+0x4fc>
    80000964:	40c000ef          	jal	ra,80000d70 <printf>
    80000968:	00001517          	auipc	a0,0x1
    8000096c:	b4050513          	addi	a0,a0,-1216 # 800014a8 <_etext+0x51c>
    80000970:	400000ef          	jal	ra,80000d70 <printf>
    80000974:	0b813083          	ld	ra,184(sp)
    80000978:	0b013403          	ld	s0,176(sp)
    8000097c:	0a813483          	ld	s1,168(sp)
    80000980:	0a013903          	ld	s2,160(sp)
    80000984:	09813983          	ld	s3,152(sp)
    80000988:	09013a03          	ld	s4,144(sp)
    8000098c:	08813a83          	ld	s5,136(sp)
    80000990:	08013b03          	ld	s6,128(sp)
    80000994:	07813b83          	ld	s7,120(sp)
    80000998:	07013c03          	ld	s8,112(sp)
    8000099c:	06813c83          	ld	s9,104(sp)
    800009a0:	06013d03          	ld	s10,96(sp)
    800009a4:	05813d83          	ld	s11,88(sp)
    800009a8:	00000513          	li	a0,0
    800009ac:	0c010113          	addi	sp,sp,192
    800009b0:	00008067          	ret
    800009b4:	00848023          	sb	s0,0(s1)
    800009b8:	00100793          	li	a5,1
    800009bc:	a8fd16e3          	bne	s10,a5,80000448 <main+0x1f4>
    800009c0:	aa5ff06f          	j	80000464 <main+0x210>
    800009c4:	00d00413          	li	s0,13
    800009c8:	00100d93          	li	s11,1
    800009cc:	ae1ff06f          	j	800004ac <main+0x258>

00000000800009d0 <__am_timer_config>:
    800009d0:	00100793          	li	a5,1
    800009d4:	00f50023          	sb	a5,0(a0)
    800009d8:	00f500a3          	sb	a5,1(a0)
    800009dc:	00008067          	ret

00000000800009e0 <__am_input_config>:
    800009e0:	00100793          	li	a5,1
    800009e4:	00f50023          	sb	a5,0(a0)
    800009e8:	00008067          	ret

00000000800009ec <__am_uart_config>:
    800009ec:	00050023          	sb	zero,0(a0)
    800009f0:	00008067          	ret

00000000800009f4 <__am_net_config>:
    800009f4:	00050023          	sb	zero,0(a0)
    800009f8:	00008067          	ret

00000000800009fc <fail>:
    800009fc:	ff010113          	addi	sp,sp,-16
    80000a00:	00813023          	sd	s0,0(sp)
    80000a04:	00113423          	sd	ra,8(sp)
    80000a08:	00001417          	auipc	s0,0x1
    80000a0c:	ae040413          	addi	s0,s0,-1312 # 800014e8 <_etext+0x55c>
    80000a10:	04100513          	li	a0,65
    80000a14:	00140413          	addi	s0,s0,1
    80000a18:	198000ef          	jal	ra,80000bb0 <putch>
    80000a1c:	00044503          	lbu	a0,0(s0)
    80000a20:	fe051ae3          	bnez	a0,80000a14 <fail+0x18>
    80000a24:	00001417          	auipc	s0,0x1
    80000a28:	ad440413          	addi	s0,s0,-1324 # 800014f8 <_etext+0x56c>
    80000a2c:	06100513          	li	a0,97
    80000a30:	00140413          	addi	s0,s0,1
    80000a34:	17c000ef          	jal	ra,80000bb0 <putch>
    80000a38:	00044503          	lbu	a0,0(s0)
    80000a3c:	fe051ae3          	bnez	a0,80000a30 <fail+0x34>
    80000a40:	00001417          	auipc	s0,0x1
    80000a44:	ad840413          	addi	s0,s0,-1320 # 80001518 <_etext+0x58c>
    80000a48:	02000513          	li	a0,32
    80000a4c:	00140413          	addi	s0,s0,1
    80000a50:	160000ef          	jal	ra,80000bb0 <putch>
    80000a54:	00044503          	lbu	a0,0(s0)
    80000a58:	fe051ae3          	bnez	a0,80000a4c <fail+0x50>
    80000a5c:	00100513          	li	a0,1
    80000a60:	160000ef          	jal	ra,80000bc0 <halt>

0000000080000a64 <ioe_init>:
    80000a64:	ff010113          	addi	sp,sp,-16
    80000a68:	00113423          	sd	ra,8(sp)
    80000a6c:	00001797          	auipc	a5,0x1
    80000a70:	b1c78793          	addi	a5,a5,-1252 # 80001588 <lut>
    80000a74:	00001697          	auipc	a3,0x1
    80000a78:	f1468693          	addi	a3,a3,-236 # 80001988 <memory>
    80000a7c:	00000617          	auipc	a2,0x0
    80000a80:	f8060613          	addi	a2,a2,-128 # 800009fc <fail>
    80000a84:	00c0006f          	j	80000a90 <ioe_init+0x2c>
    80000a88:	00878793          	addi	a5,a5,8
    80000a8c:	00d78c63          	beq	a5,a3,80000aa4 <ioe_init+0x40>
    80000a90:	0007b703          	ld	a4,0(a5)
    80000a94:	fe071ae3          	bnez	a4,80000a88 <ioe_init+0x24>
    80000a98:	00c7b023          	sd	a2,0(a5)
    80000a9c:	00878793          	addi	a5,a5,8
    80000aa0:	fed798e3          	bne	a5,a3,80000a90 <ioe_init+0x2c>
    80000aa4:	09c000ef          	jal	ra,80000b40 <__am_gpu_init>
    80000aa8:	034000ef          	jal	ra,80000adc <__am_timer_init>
    80000aac:	0d8000ef          	jal	ra,80000b84 <__am_audio_init>
    80000ab0:	00813083          	ld	ra,8(sp)
    80000ab4:	00100513          	li	a0,1
    80000ab8:	01010113          	addi	sp,sp,16
    80000abc:	00008067          	ret

0000000080000ac0 <ioe_read>:
    80000ac0:	00351793          	slli	a5,a0,0x3
    80000ac4:	00001517          	auipc	a0,0x1
    80000ac8:	ac450513          	addi	a0,a0,-1340 # 80001588 <lut>
    80000acc:	00f50533          	add	a0,a0,a5
    80000ad0:	00053303          	ld	t1,0(a0)
    80000ad4:	00058513          	mv	a0,a1
    80000ad8:	00030067          	jr	t1

0000000080000adc <__am_timer_init>:
    80000adc:	00500793          	li	a5,5
    80000ae0:	01d79793          	slli	a5,a5,0x1d
    80000ae4:	0487b783          	ld	a5,72(a5)
    80000ae8:	00001717          	auipc	a4,0x1
    80000aec:	2af73023          	sd	a5,672(a4) # 80001d88 <boot_time>
    80000af0:	00008067          	ret

0000000080000af4 <__am_timer_uptime>:
    80000af4:	00500793          	li	a5,5
    80000af8:	01d79793          	slli	a5,a5,0x1d
    80000afc:	0487b783          	ld	a5,72(a5)
    80000b00:	00001717          	auipc	a4,0x1
    80000b04:	28873703          	ld	a4,648(a4) # 80001d88 <boot_time>
    80000b08:	40e787b3          	sub	a5,a5,a4
    80000b0c:	00f53023          	sd	a5,0(a0)
    80000b10:	00008067          	ret

0000000080000b14 <__am_timer_rtc>:
    80000b14:	76c00793          	li	a5,1900
    80000b18:	00052a23          	sw	zero,20(a0)
    80000b1c:	00052823          	sw	zero,16(a0)
    80000b20:	00052623          	sw	zero,12(a0)
    80000b24:	00052423          	sw	zero,8(a0)
    80000b28:	00052223          	sw	zero,4(a0)
    80000b2c:	00f52023          	sw	a5,0(a0)
    80000b30:	00008067          	ret

0000000080000b34 <__am_input_keybrd>:
    80000b34:	00050023          	sb	zero,0(a0)
    80000b38:	00052223          	sw	zero,4(a0)
    80000b3c:	00008067          	ret

0000000080000b40 <__am_gpu_init>:
    80000b40:	00008067          	ret

0000000080000b44 <__am_gpu_config>:
    80000b44:	00100793          	li	a5,1
    80000b48:	00f51023          	sh	a5,0(a0)
    80000b4c:	00052223          	sw	zero,4(a0)
    80000b50:	00052423          	sw	zero,8(a0)
    80000b54:	00052623          	sw	zero,12(a0)
    80000b58:	00008067          	ret

0000000080000b5c <__am_gpu_fbdraw>:
    80000b5c:	01854783          	lbu	a5,24(a0)
    80000b60:	00078a63          	beqz	a5,80000b74 <__am_gpu_fbdraw+0x18>
    80000b64:	00500793          	li	a5,5
    80000b68:	01d79793          	slli	a5,a5,0x1d
    80000b6c:	00100713          	li	a4,1
    80000b70:	10e7a223          	sw	a4,260(a5)
    80000b74:	00008067          	ret

0000000080000b78 <__am_gpu_status>:
    80000b78:	00100793          	li	a5,1
    80000b7c:	00f50023          	sb	a5,0(a0)
    80000b80:	00008067          	ret

0000000080000b84 <__am_audio_init>:
    80000b84:	00008067          	ret

0000000080000b88 <__am_audio_config>:
    80000b88:	00050023          	sb	zero,0(a0)
    80000b8c:	00008067          	ret

0000000080000b90 <__am_audio_ctrl>:
    80000b90:	00008067          	ret

0000000080000b94 <__am_audio_status>:
    80000b94:	00052023          	sw	zero,0(a0)
    80000b98:	00008067          	ret

0000000080000b9c <__am_audio_play>:
    80000b9c:	00008067          	ret

0000000080000ba0 <__am_disk_config>:
    80000ba0:	00050023          	sb	zero,0(a0)
    80000ba4:	00008067          	ret

0000000080000ba8 <__am_disk_status>:
    80000ba8:	00008067          	ret

0000000080000bac <__am_disk_blkio>:
    80000bac:	00008067          	ret

0000000080000bb0 <putch>:
    80000bb0:	00500793          	li	a5,5
    80000bb4:	01d79793          	slli	a5,a5,0x1d
    80000bb8:	3ea78c23          	sb	a0,1016(a5)
    80000bbc:	00008067          	ret

0000000080000bc0 <halt>:
    80000bc0:	00050513          	mv	a0,a0
    80000bc4:	00100073          	ebreak
    80000bc8:	0000006f          	j	80000bc8 <halt+0x8>

0000000080000bcc <_trm_init>:
    80000bcc:	ff010113          	addi	sp,sp,-16
    80000bd0:	00001517          	auipc	a0,0x1
    80000bd4:	9a050513          	addi	a0,a0,-1632 # 80001570 <mainargs>
    80000bd8:	00113423          	sd	ra,8(sp)
    80000bdc:	e78ff0ef          	jal	ra,80000254 <main>
    80000be0:	00050513          	mv	a0,a0
    80000be4:	00100073          	ebreak
    80000be8:	0000006f          	j	80000be8 <_trm_init+0x1c>

0000000080000bec <strlen>:
    80000bec:	00054783          	lbu	a5,0(a0)
    80000bf0:	00050713          	mv	a4,a0
    80000bf4:	00000513          	li	a0,0
    80000bf8:	00078c63          	beqz	a5,80000c10 <strlen+0x24>
    80000bfc:	00150513          	addi	a0,a0,1
    80000c00:	00a707b3          	add	a5,a4,a0
    80000c04:	0007c783          	lbu	a5,0(a5)
    80000c08:	fe079ae3          	bnez	a5,80000bfc <strlen+0x10>
    80000c0c:	00008067          	ret
    80000c10:	00008067          	ret

0000000080000c14 <strcpy>:
    80000c14:	00050793          	mv	a5,a0
    80000c18:	0005c683          	lbu	a3,0(a1)
    80000c1c:	00178793          	addi	a5,a5,1
    80000c20:	00158593          	addi	a1,a1,1
    80000c24:	fed78fa3          	sb	a3,-1(a5)
    80000c28:	fff5c703          	lbu	a4,-1(a1)
    80000c2c:	fe0716e3          	bnez	a4,80000c18 <strcpy+0x4>
    80000c30:	00008067          	ret

0000000080000c34 <strcmp>:
    80000c34:	00054683          	lbu	a3,0(a0)
    80000c38:	0005c703          	lbu	a4,0(a1)
    80000c3c:	00150793          	addi	a5,a0,1
    80000c40:	00158593          	addi	a1,a1,1
    80000c44:	02068063          	beqz	a3,80000c64 <strcmp+0x30>
    80000c48:	02070463          	beqz	a4,80000c70 <strcmp+0x3c>
    80000c4c:	02e69863          	bne	a3,a4,80000c7c <strcmp+0x48>
    80000c50:	0007c683          	lbu	a3,0(a5)
    80000c54:	0005c703          	lbu	a4,0(a1)
    80000c58:	00178793          	addi	a5,a5,1
    80000c5c:	00158593          	addi	a1,a1,1
    80000c60:	fe0694e3          	bnez	a3,80000c48 <strcmp+0x14>
    80000c64:	00000513          	li	a0,0
    80000c68:	40e5053b          	subw	a0,a0,a4
    80000c6c:	00008067          	ret
    80000c70:	0006851b          	sext.w	a0,a3
    80000c74:	40e5053b          	subw	a0,a0,a4
    80000c78:	00008067          	ret
    80000c7c:	40e6853b          	subw	a0,a3,a4
    80000c80:	00008067          	ret

0000000080000c84 <int2str>:
    80000c84:	00050613          	mv	a2,a0
    80000c88:	00051e63          	bnez	a0,80000ca4 <int2str+0x20>
    80000c8c:	03000793          	li	a5,48
    80000c90:	00158893          	addi	a7,a1,1
    80000c94:	00f58023          	sb	a5,0(a1)
    80000c98:	00100513          	li	a0,1
    80000c9c:	00088023          	sb	zero,0(a7)
    80000ca0:	00008067          	ret
    80000ca4:	0a055e63          	bgez	a0,80000d60 <int2str+0xdc>
    80000ca8:	02d00793          	li	a5,45
    80000cac:	00f58023          	sb	a5,0(a1)
    80000cb0:	00100f13          	li	t5,1
    80000cb4:	00000693          	li	a3,0
    80000cb8:	00100e93          	li	t4,1
    80000cbc:	01e58733          	add	a4,a1,t5
    80000cc0:	00070813          	mv	a6,a4
    80000cc4:	000f0513          	mv	a0,t5
    80000cc8:	00a00893          	li	a7,10
    80000ccc:	03000e13          	li	t3,48
    80000cd0:	031667bb          	remw	a5,a2,a7
    80000cd4:	0ff7f793          	andi	a5,a5,255
    80000cd8:	40fe033b          	subw	t1,t3,a5
    80000cdc:	0307879b          	addiw	a5,a5,48
    80000ce0:	0ff7f793          	andi	a5,a5,255
    80000ce4:	000e8463          	beqz	t4,80000cec <int2str+0x68>
    80000ce8:	0ff37793          	andi	a5,t1,255
    80000cec:	0316463b          	divw	a2,a2,a7
    80000cf0:	00f80023          	sb	a5,0(a6)
    80000cf4:	0015051b          	addiw	a0,a0,1
    80000cf8:	00180813          	addi	a6,a6,1
    80000cfc:	fc061ae3          	bnez	a2,80000cd0 <int2str+0x4c>
    80000d00:	00af07bb          	addw	a5,t5,a0
    80000d04:	4017d61b          	sraiw	a2,a5,0x1
    80000d08:	00a588b3          	add	a7,a1,a0
    80000d0c:	f8cf58e3          	bge	t5,a2,80000c9c <int2str+0x18>
    80000d10:	fff6081b          	addiw	a6,a2,-1
    80000d14:	01e687b3          	add	a5,a3,t5
    80000d18:	41e806bb          	subw	a3,a6,t5
    80000d1c:	00158613          	addi	a2,a1,1
    80000d20:	02069693          	slli	a3,a3,0x20
    80000d24:	40f507b3          	sub	a5,a0,a5
    80000d28:	01e60633          	add	a2,a2,t5
    80000d2c:	0206d693          	srli	a3,a3,0x20
    80000d30:	00f585b3          	add	a1,a1,a5
    80000d34:	00d60633          	add	a2,a2,a3
    80000d38:	00070793          	mv	a5,a4
    80000d3c:	0007c683          	lbu	a3,0(a5)
    80000d40:	0005c703          	lbu	a4,0(a1)
    80000d44:	00178793          	addi	a5,a5,1
    80000d48:	00d58023          	sb	a3,0(a1)
    80000d4c:	fee78fa3          	sb	a4,-1(a5)
    80000d50:	fff58593          	addi	a1,a1,-1
    80000d54:	fec794e3          	bne	a5,a2,80000d3c <int2str+0xb8>
    80000d58:	00088023          	sb	zero,0(a7)
    80000d5c:	00008067          	ret
    80000d60:	00000f13          	li	t5,0
    80000d64:	00100693          	li	a3,1
    80000d68:	00000e93          	li	t4,0
    80000d6c:	f51ff06f          	j	80000cbc <int2str+0x38>

0000000080000d70 <printf>:
    80000d70:	97010113          	addi	sp,sp,-1680
    80000d74:	66f13c23          	sd	a5,1656(sp)
    80000d78:	65810793          	addi	a5,sp,1624
    80000d7c:	63413023          	sd	s4,1568(sp)
    80000d80:	64113423          	sd	ra,1608(sp)
    80000d84:	64813023          	sd	s0,1600(sp)
    80000d88:	62913c23          	sd	s1,1592(sp)
    80000d8c:	63213823          	sd	s2,1584(sp)
    80000d90:	63313423          	sd	s3,1576(sp)
    80000d94:	61513c23          	sd	s5,1560(sp)
    80000d98:	61613823          	sd	s6,1552(sp)
    80000d9c:	61713423          	sd	s7,1544(sp)
    80000da0:	61813023          	sd	s8,1536(sp)
    80000da4:	00050a13          	mv	s4,a0
    80000da8:	64b13c23          	sd	a1,1624(sp)
    80000dac:	66c13023          	sd	a2,1632(sp)
    80000db0:	66d13423          	sd	a3,1640(sp)
    80000db4:	66e13823          	sd	a4,1648(sp)
    80000db8:	69013023          	sd	a6,1664(sp)
    80000dbc:	69113423          	sd	a7,1672(sp)
    80000dc0:	00f13023          	sd	a5,0(sp)
    80000dc4:	e29ff0ef          	jal	ra,80000bec <strlen>
    80000dc8:	1a050e63          	beqz	a0,80000f84 <printf+0x214>
    80000dcc:	00050a93          	mv	s5,a0
    80000dd0:	00000493          	li	s1,0
    80000dd4:	00000913          	li	s2,0
    80000dd8:	00000793          	li	a5,0
    80000ddc:	02500b13          	li	s6,37
    80000de0:	06400b93          	li	s7,100
    80000de4:	07300c13          	li	s8,115
    80000de8:	00fa0433          	add	s0,s4,a5
    80000dec:	00044783          	lbu	a5,0(s0)
    80000df0:	0019099b          	addiw	s3,s2,1
    80000df4:	09678663          	beq	a5,s6,80000e80 <printf+0x110>
    80000df8:	60010713          	addi	a4,sp,1536
    80000dfc:	00970733          	add	a4,a4,s1
    80000e00:	c0f70023          	sb	a5,-1024(a4)
    80000e04:	00098913          	mv	s2,s3
    80000e08:	0014849b          	addiw	s1,s1,1
    80000e0c:	00098793          	mv	a5,s3
    80000e10:	fd57ece3          	bltu	a5,s5,80000de8 <printf+0x78>
    80000e14:	60010793          	addi	a5,sp,1536
    80000e18:	009787b3          	add	a5,a5,s1
    80000e1c:	c0078023          	sb	zero,-1024(a5)
    80000e20:	02048663          	beqz	s1,80000e4c <printf+0xdc>
    80000e24:	fff4891b          	addiw	s2,s1,-1
    80000e28:	02091913          	slli	s2,s2,0x20
    80000e2c:	02095913          	srli	s2,s2,0x20
    80000e30:	20110793          	addi	a5,sp,513
    80000e34:	20010413          	addi	s0,sp,512
    80000e38:	00f90933          	add	s2,s2,a5
    80000e3c:	00044503          	lbu	a0,0(s0)
    80000e40:	00140413          	addi	s0,s0,1
    80000e44:	d6dff0ef          	jal	ra,80000bb0 <putch>
    80000e48:	fe891ae3          	bne	s2,s0,80000e3c <printf+0xcc>
    80000e4c:	64813083          	ld	ra,1608(sp)
    80000e50:	64013403          	ld	s0,1600(sp)
    80000e54:	63013903          	ld	s2,1584(sp)
    80000e58:	62813983          	ld	s3,1576(sp)
    80000e5c:	62013a03          	ld	s4,1568(sp)
    80000e60:	61813a83          	ld	s5,1560(sp)
    80000e64:	61013b03          	ld	s6,1552(sp)
    80000e68:	60813b83          	ld	s7,1544(sp)
    80000e6c:	60013c03          	ld	s8,1536(sp)
    80000e70:	00048513          	mv	a0,s1
    80000e74:	63813483          	ld	s1,1592(sp)
    80000e78:	69010113          	addi	sp,sp,1680
    80000e7c:	00008067          	ret
    80000e80:	000a0513          	mv	a0,s4
    80000e84:	d69ff0ef          	jal	ra,80000bec <strlen>
    80000e88:	00a9e663          	bltu	s3,a0,80000e94 <printf+0x124>
    80000e8c:	00044783          	lbu	a5,0(s0)
    80000e90:	f69ff06f          	j	80000df8 <printf+0x88>
    80000e94:	00144783          	lbu	a5,1(s0)
    80000e98:	07778e63          	beq	a5,s7,80000f14 <printf+0x1a4>
    80000e9c:	03878463          	beq	a5,s8,80000ec4 <printf+0x154>
    80000ea0:	0d679e63          	bne	a5,s6,80000f7c <printf+0x20c>
    80000ea4:	60010793          	addi	a5,sp,1536
    80000ea8:	009787b3          	add	a5,a5,s1
    80000eac:	0029091b          	addiw	s2,s2,2
    80000eb0:	c1678023          	sb	s6,-1024(a5)
    80000eb4:	00090793          	mv	a5,s2
    80000eb8:	0014849b          	addiw	s1,s1,1
    80000ebc:	f357e6e3          	bltu	a5,s5,80000de8 <printf+0x78>
    80000ec0:	f55ff06f          	j	80000e14 <printf+0xa4>
    80000ec4:	00013703          	ld	a4,0(sp)
    80000ec8:	0029091b          	addiw	s2,s2,2
    80000ecc:	00090793          	mv	a5,s2
    80000ed0:	00073683          	ld	a3,0(a4)
    80000ed4:	00870713          	addi	a4,a4,8
    80000ed8:	00e13023          	sd	a4,0(sp)
    80000edc:	0006c603          	lbu	a2,0(a3)
    80000ee0:	f20608e3          	beqz	a2,80000e10 <printf+0xa0>
    80000ee4:	0014871b          	addiw	a4,s1,1
    80000ee8:	00168693          	addi	a3,a3,1
    80000eec:	20010593          	addi	a1,sp,512
    80000ef0:	00e585b3          	add	a1,a1,a4
    80000ef4:	fec58fa3          	sb	a2,-1(a1)
    80000ef8:	0006c603          	lbu	a2,0(a3)
    80000efc:	0007049b          	sext.w	s1,a4
    80000f00:	00168693          	addi	a3,a3,1
    80000f04:	00170713          	addi	a4,a4,1
    80000f08:	fe0612e3          	bnez	a2,80000eec <printf+0x17c>
    80000f0c:	ed57eee3          	bltu	a5,s5,80000de8 <printf+0x78>
    80000f10:	f05ff06f          	j	80000e14 <printf+0xa4>
    80000f14:	00013783          	ld	a5,0(sp)
    80000f18:	00810593          	addi	a1,sp,8
    80000f1c:	0007a503          	lw	a0,0(a5)
    80000f20:	00878793          	addi	a5,a5,8
    80000f24:	00f13023          	sd	a5,0(sp)
    80000f28:	d5dff0ef          	jal	ra,80000c84 <int2str>
    80000f2c:	04a05063          	blez	a0,80000f6c <printf+0x1fc>
    80000f30:	fff5061b          	addiw	a2,a0,-1
    80000f34:	02061613          	slli	a2,a2,0x20
    80000f38:	02065613          	srli	a2,a2,0x20
    80000f3c:	20010713          	addi	a4,sp,512
    80000f40:	00910693          	addi	a3,sp,9
    80000f44:	00810793          	addi	a5,sp,8
    80000f48:	00970733          	add	a4,a4,s1
    80000f4c:	0005051b          	sext.w	a0,a0
    80000f50:	00c68633          	add	a2,a3,a2
    80000f54:	0007c683          	lbu	a3,0(a5)
    80000f58:	00178793          	addi	a5,a5,1
    80000f5c:	00170713          	addi	a4,a4,1
    80000f60:	fed70fa3          	sb	a3,-1(a4)
    80000f64:	fec798e3          	bne	a5,a2,80000f54 <printf+0x1e4>
    80000f68:	00a484bb          	addw	s1,s1,a0
    80000f6c:	0029091b          	addiw	s2,s2,2
    80000f70:	00090793          	mv	a5,s2
    80000f74:	e757eae3          	bltu	a5,s5,80000de8 <printf+0x78>
    80000f78:	e9dff06f          	j	80000e14 <printf+0xa4>
    80000f7c:	fff00493          	li	s1,-1
    80000f80:	ecdff06f          	j	80000e4c <printf+0xdc>
    80000f84:	00000493          	li	s1,0
    80000f88:	ec5ff06f          	j	80000e4c <printf+0xdc>
